	.text
	.file	"llvm-link"
	.globl	_size_Object                    # -- Begin function _size_Object
	.p2align	4, 0x90
	.type	_size_Object,@function
_size_Object:                           # @_size_Object
# %bb.0:
	movl	$1, %edx
	xorl	%eax, %eax
	retq
.Lfunc_end0:
	.size	_size_Object, .Lfunc_end0-_size_Object
                                        # -- End function
	.weak	_size_any_typ                   # -- Begin function _size_any_typ
	.p2align	4, 0x90
	.type	_size_any_typ,@function
_size_any_typ:                          # @_size_any_typ
	.cfi_startproc
# %bb.0:
	movl	$32, %eax
	movl	$8, %edx
	retq
.Lfunc_end1:
	.size	_size_any_typ, .Lfunc_end1-_size_any_typ
	.cfi_endproc
                                        # -- End function
	.globl	_size_Iterator                  # -- Begin function _size_Iterator
	.p2align	4, 0x90
	.type	_size_Iterator,@function
_size_Iterator:                         # @_size_Iterator
# %bb.0:
	movl	$1, %edx
	xorl	%eax, %eax
	retq
.Lfunc_end2:
	.size	_size_Iterator, .Lfunc_end2-_size_Iterator
                                        # -- End function
	.globl	_size_Iterable                  # -- Begin function _size_Iterable
	.p2align	4, 0x90
	.type	_size_Iterable,@function
_size_Iterable:                         # @_size_Iterable
# %bb.0:
	movl	$1, %edx
	xorl	%eax, %eax
	retq
.Lfunc_end3:
	.size	_size_Iterable, .Lfunc_end3-_size_Iterable
                                        # -- End function
	.globl	_size_Representable             # -- Begin function _size_Representable
	.p2align	4, 0x90
	.type	_size_Representable,@function
_size_Representable:                    # @_size_Representable
# %bb.0:
	movl	$1, %edx
	xorl	%eax, %eax
	retq
.Lfunc_end4:
	.size	_size_Representable, .Lfunc_end4-_size_Representable
                                        # -- End function
	.globl	Representable_B_repr_           # -- Begin function Representable_B_repr_
	.p2align	4, 0x90
	.type	Representable_B_repr_,@function
Representable_B_repr_:                  # @Representable_B_repr_
# %bb.0:
	movq	80(%rdi), %rax
	retq
.Lfunc_end5:
	.size	Representable_B_repr_, .Lfunc_end5-Representable_B_repr_
                                        # -- End function
	.section	.rodata.cst16,"aM",@progbits,16
	.p2align	4, 0x0                          # -- Begin function Representable_repr_
.LCPI6_0:
	.byte	79                              # 0x4f
	.byte	98                              # 0x62
	.byte	106                             # 0x6a
	.byte	101                             # 0x65
	.byte	99                              # 0x63
	.byte	116                             # 0x74
	.zero	1
	.zero	1
	.zero	1
	.zero	1
	.zero	1
	.zero	1
	.zero	1
	.zero	1
	.zero	1
	.zero	1
	.text
	.globl	Representable_repr_
	.p2align	4, 0x90
	.type	Representable_repr_,@function
Representable_repr_:                    # @Representable_repr_
# %bb.0:
	pushq	%r15
	pushq	%r14
	pushq	%rbx
	movq	%rdi, %rbx
	movq	%fs:0, %rax
	leaq	current_ptr@TPOFF(%rax), %r14
	movl	$7, %edi
	movq	%r14, %rsi
	callq	bump_malloc_inner@PLT
	movq	%rax, %r15
	movl	.LCPI6_0(%rip), %eax
	movl	%eax, (%r15)
	movw	$29795, 4(%r15)                 # imm = 0x7463
	movl	$16, %edi
	movq	%r14, %rsi
	callq	bump_malloc_inner@PLT
	movq	String@GOTPCREL(%rip), %rcx
	movq	%r15, (%rax)
	movabsq	$30064771078, %rdx              # imm = 0x700000006
	movq	%rdx, 8(%rax)
	movq	%rcx, (%rbx)
	movq	%rax, 8(%rbx)
	movl	$9, 24(%rbx)
	movq	%rbx, %rax
	popq	%rbx
	popq	%r14
	popq	%r15
	retq
.Lfunc_end6:
	.size	Representable_repr_, .Lfunc_end6-Representable_repr_
                                        # -- End function
	.weak	_size_i32_typ                   # -- Begin function _size_i32_typ
	.p2align	4, 0x90
	.type	_size_i32_typ,@function
_size_i32_typ:                          # @_size_i32_typ
	.cfi_startproc
# %bb.0:
	movl	$4, %eax
	movl	$4, %edx
	retq
.Lfunc_end7:
	.size	_size_i32_typ, .Lfunc_end7-_size_i32_typ
	.cfi_endproc
                                        # -- End function
	.weak	_box_i32_typ                    # -- Begin function _box_i32_typ
	.p2align	4, 0x90
	.type	_box_i32_typ,@function
_box_i32_typ:                           # @_box_i32_typ
	.cfi_startproc
# %bb.0:
	movq	%rdi, %rax
	movl	(%rsi), %ecx
	movq	i32_typ@GOTPCREL(%rip), %rdx
	movq	%rdx, (%rdi)
	movq	%rcx, 16(%rdi)
	movq	$0, 24(%rdi)
	movl	$0, 32(%rdi)
	retq
.Lfunc_end8:
	.size	_box_i32_typ, .Lfunc_end8-_box_i32_typ
	.cfi_endproc
                                        # -- End function
	.weak	_unbox_i32_typ                  # -- Begin function _unbox_i32_typ
	.p2align	4, 0x90
	.type	_unbox_i32_typ,@function
_unbox_i32_typ:                         # @_unbox_i32_typ
	.cfi_startproc
# %bb.0:
	movl	%esi, (%r9)
	retq
.Lfunc_end9:
	.size	_unbox_i32_typ, .Lfunc_end9-_unbox_i32_typ
	.cfi_endproc
                                        # -- End function
	.globl	_size_String                    # -- Begin function _size_String
	.p2align	4, 0x90
	.type	_size_String,@function
_size_String:                           # @_size_String
# %bb.0:
	movl	$16, %eax
	movl	$8, %edx
	retq
.Lfunc_end10:
	.size	_size_String, .Lfunc_end10-_size_String
                                        # -- End function
	.globl	String_B_init_                  # -- Begin function String_B_init_
	.p2align	4, 0x90
	.type	String_B_init_,@function
String_B_init_:                         # @String_B_init_
# %bb.0:
	movq	208(%rdi), %rax
	retq
.Lfunc_end11:
	.size	String_B_init_, .Lfunc_end11-String_B_init_
                                        # -- End function
	.globl	String_B_init_bytesBufferPtri8_lengthPtri32_capacityPtri32 # -- Begin function String_B_init_bytesBufferPtri8_lengthPtri32_capacityPtri32
	.p2align	4, 0x90
	.type	String_B_init_bytesBufferPtri8_lengthPtri32_capacityPtri32,@function
String_B_init_bytesBufferPtri8_lengthPtri32_capacityPtri32: # @String_B_init_bytesBufferPtri8_lengthPtri32_capacityPtri32
# %bb.0:
	movq	216(%rdi), %rax
	retq
.Lfunc_end12:
	.size	String_B_init_bytesBufferPtri8_lengthPtri32_capacityPtri32, .Lfunc_end12-String_B_init_bytesBufferPtri8_lengthPtri32_capacityPtri32
                                        # -- End function
	.globl	String_B_length_                # -- Begin function String_B_length_
	.p2align	4, 0x90
	.type	String_B_length_,@function
String_B_length_:                       # @String_B_length_
# %bb.0:
	movq	224(%rdi), %rax
	retq
.Lfunc_end13:
	.size	String_B_length_, .Lfunc_end13-String_B_length_
                                        # -- End function
	.globl	String_B_capacity_              # -- Begin function String_B_capacity_
	.p2align	4, 0x90
	.type	String_B_capacity_,@function
String_B_capacity_:                     # @String_B_capacity_
# %bb.0:
	movq	232(%rdi), %rax
	retq
.Lfunc_end14:
	.size	String_B_capacity_, .Lfunc_end14-String_B_capacity_
                                        # -- End function
	.globl	String_B_bytes_                 # -- Begin function String_B_bytes_
	.p2align	4, 0x90
	.type	String_B_bytes_,@function
String_B_bytes_:                        # @String_B_bytes_
# %bb.0:
	movq	240(%rdi), %rax
	retq
.Lfunc_end15:
	.size	String_B_bytes_, .Lfunc_end15-String_B_bytes_
                                        # -- End function
	.globl	String_B_append_xPtri8          # -- Begin function String_B_append_xPtri8
	.p2align	4, 0x90
	.type	String_B_append_xPtri8,@function
String_B_append_xPtri8:                 # @String_B_append_xPtri8
# %bb.0:
	movq	248(%rdi), %rax
	retq
.Lfunc_end16:
	.size	String_B_append_xPtri8, .Lfunc_end16-String_B_append_xPtri8
                                        # -- End function
	.globl	String_B_extend_strString       # -- Begin function String_B_extend_strString
	.p2align	4, 0x90
	.type	String_B_extend_strString,@function
String_B_extend_strString:              # @String_B_extend_strString
# %bb.0:
	movq	256(%rdi), %rax
	retq
.Lfunc_end17:
	.size	String_B_extend_strString, .Lfunc_end17-String_B_extend_strString
                                        # -- End function
	.globl	String_B__index_xPtri32         # -- Begin function String_B__index_xPtri32
	.p2align	4, 0x90
	.type	String_B__index_xPtri32,@function
String_B__index_xPtri32:                # @String_B__index_xPtri32
# %bb.0:
	movq	264(%rdi), %rax
	retq
.Lfunc_end18:
	.size	String_B__index_xPtri32, .Lfunc_end18-String_B__index_xPtri32
                                        # -- End function
	.globl	String_B__EQ_otherString        # -- Begin function String_B__EQ_otherString
	.p2align	4, 0x90
	.type	String_B__EQ_otherString,@function
String_B__EQ_otherString:               # @String_B__EQ_otherString
# %bb.0:
	movq	272(%rdi), %rax
	retq
.Lfunc_end19:
	.size	String_B__EQ_otherString, .Lfunc_end19-String_B__EQ_otherString
                                        # -- End function
	.globl	String_B_pop_                   # -- Begin function String_B_pop_
	.p2align	4, 0x90
	.type	String_B_pop_,@function
String_B_pop_:                          # @String_B_pop_
# %bb.0:
	movq	280(%rdi), %rax
	retq
.Lfunc_end20:
	.size	String_B_pop_, .Lfunc_end20-String_B_pop_
                                        # -- End function
	.globl	String_B_copy_                  # -- Begin function String_B_copy_
	.p2align	4, 0x90
	.type	String_B_copy_,@function
String_B_copy_:                         # @String_B_copy_
# %bb.0:
	movq	288(%rdi), %rax
	retq
.Lfunc_end21:
	.size	String_B_copy_, .Lfunc_end21-String_B_copy_
                                        # -- End function
	.globl	String_B_c_string_              # -- Begin function String_B_c_string_
	.p2align	4, 0x90
	.type	String_B_c_string_,@function
String_B_c_string_:                     # @String_B_c_string_
# %bb.0:
	movq	296(%rdi), %rax
	retq
.Lfunc_end22:
	.size	String_B_c_string_, .Lfunc_end22-String_B_c_string_
                                        # -- End function
	.globl	String_B_iterator_              # -- Begin function String_B_iterator_
	.p2align	4, 0x90
	.type	String_B_iterator_,@function
String_B_iterator_:                     # @String_B_iterator_
# %bb.0:
	movq	304(%rdi), %rax
	retq
.Lfunc_end23:
	.size	String_B_iterator_, .Lfunc_end23-String_B_iterator_
                                        # -- End function
	.globl	String_B_repr_                  # -- Begin function String_B_repr_
	.p2align	4, 0x90
	.type	String_B_repr_,@function
String_B_repr_:                         # @String_B_repr_
# %bb.0:
	movq	312(%rdi), %rax
	retq
.Lfunc_end24:
	.size	String_B_repr_, .Lfunc_end24-String_B_repr_
                                        # -- End function
	.globl	String_init_                    # -- Begin function String_init_
	.p2align	4, 0x90
	.type	String_init_,@function
String_init_:                           # @String_init_
	.cfi_startproc
# %bb.0:
	pushq	%r15
	.cfi_def_cfa_offset 16
	pushq	%r14
	.cfi_def_cfa_offset 24
	pushq	%rbx
	.cfi_def_cfa_offset 32
	.cfi_offset %rbx, -32
	.cfi_offset %r14, -24
	.cfi_offset %r15, -16
	movq	%rsi, %rbx
	movq	%rdi, %r14
	movq	40(%rdi), %rax
	movabsq	$6499063144389013426, %rcx      # imm = 0x5A314F7F0E23EFB2
	imulq	8(%rdi), %rcx
	movq	%rcx, %rdx
	shrq	$32, %rdx
	xorq	%rcx, %rdx
	andq	16(%rdi), %rdx
	movslq	(%rax,%rdx,4), %r15
	movq	%fs:0, %rax
	leaq	current_ptr@TPOFF(%rax), %rsi
	movl	$1, %edi
	callq	bump_malloc_inner@PLT
	movq	(%r14,%r15,8), %rcx
	movq	%rbx, %rdi
	movq	%rax, %rsi
	callq	*8(%rcx)
	movq	16(%r14,%r15,8), %rax
	movq	%rbx, %rdi
	movl	$1, %esi
	callq	*8(%rax)
	movq	8(%r14,%r15,8), %rax
	movq	8(%rax), %rax
	movq	%rbx, %rdi
	xorl	%esi, %esi
	popq	%rbx
	.cfi_def_cfa_offset 24
	popq	%r14
	.cfi_def_cfa_offset 16
	popq	%r15
	.cfi_def_cfa_offset 8
	jmpq	*%rax                           # TAILCALL
.Lfunc_end25:
	.size	String_init_, .Lfunc_end25-String_init_
	.cfi_endproc
                                        # -- End function
	.globl	String_init_bytesBufferPtri8_lengthPtri32_capacityPtri32 # -- Begin function String_init_bytesBufferPtri8_lengthPtri32_capacityPtri32
	.p2align	4, 0x90
	.type	String_init_bytesBufferPtri8_lengthPtri32_capacityPtri32,@function
String_init_bytesBufferPtri8_lengthPtri32_capacityPtri32: # @String_init_bytesBufferPtri8_lengthPtri32_capacityPtri32
	.cfi_startproc
# %bb.0:
	pushq	%rbp
	.cfi_def_cfa_offset 16
	pushq	%r15
	.cfi_def_cfa_offset 24
	pushq	%r14
	.cfi_def_cfa_offset 32
	pushq	%r12
	.cfi_def_cfa_offset 40
	pushq	%rbx
	.cfi_def_cfa_offset 48
	.cfi_offset %rbx, -48
	.cfi_offset %r12, -40
	.cfi_offset %r14, -32
	.cfi_offset %r15, -24
	.cfi_offset %rbp, -16
	movq	%rsi, %rbx
	movq	%rdi, %r14
	movl	88(%rsp), %ebp
	movl	80(%rsp), %r15d
	movq	72(%rsp), %rsi
	movq	40(%rdi), %rax
	movabsq	$6499063144389013426, %rcx      # imm = 0x5A314F7F0E23EFB2
	imulq	8(%rdi), %rcx
	movq	%rcx, %rdx
	shrq	$32, %rdx
	xorq	%rcx, %rdx
	andq	16(%rdi), %rdx
	movslq	(%rax,%rdx,4), %r12
	movq	(%rdi,%r12,8), %rax
	movq	%rbx, %rdi
	callq	*8(%rax)
	movq	8(%r14,%r12,8), %rax
	movq	%rbx, %rdi
	movl	%r15d, %esi
	callq	*8(%rax)
	movq	16(%r14,%r12,8), %rax
	movq	8(%rax), %rax
	movq	%rbx, %rdi
	movl	%ebp, %esi
	popq	%rbx
	.cfi_def_cfa_offset 40
	popq	%r12
	.cfi_def_cfa_offset 32
	popq	%r14
	.cfi_def_cfa_offset 24
	popq	%r15
	.cfi_def_cfa_offset 16
	popq	%rbp
	.cfi_def_cfa_offset 8
	jmpq	*%rax                           # TAILCALL
.Lfunc_end26:
	.size	String_init_bytesBufferPtri8_lengthPtri32_capacityPtri32, .Lfunc_end26-String_init_bytesBufferPtri8_lengthPtri32_capacityPtri32
	.cfi_endproc
                                        # -- End function
	.globl	String_length_                  # -- Begin function String_length_
	.p2align	4, 0x90
	.type	String_length_,@function
String_length_:                         # @String_length_
	.cfi_startproc
# %bb.0:
	movq	40(%rdi), %rax
	movabsq	$6499063144389013426, %rcx      # imm = 0x5A314F7F0E23EFB2
	imulq	8(%rdi), %rcx
	movq	%rcx, %rdx
	shrq	$32, %rdx
	xorq	%rcx, %rdx
	andq	16(%rdi), %rdx
	movslq	(%rax,%rdx,4), %rax
	movq	8(%rdi,%rax,8), %rax
	movq	%rsi, %rdi
	jmpq	*(%rax)                         # TAILCALL
.Lfunc_end27:
	.size	String_length_, .Lfunc_end27-String_length_
	.cfi_endproc
                                        # -- End function
	.globl	String_capacity_                # -- Begin function String_capacity_
	.p2align	4, 0x90
	.type	String_capacity_,@function
String_capacity_:                       # @String_capacity_
	.cfi_startproc
# %bb.0:
	movq	40(%rdi), %rax
	movabsq	$6499063144389013426, %rcx      # imm = 0x5A314F7F0E23EFB2
	imulq	8(%rdi), %rcx
	movq	%rcx, %rdx
	shrq	$32, %rdx
	xorq	%rcx, %rdx
	andq	16(%rdi), %rdx
	movslq	(%rax,%rdx,4), %rax
	movq	16(%rdi,%rax,8), %rax
	movq	%rsi, %rdi
	jmpq	*(%rax)                         # TAILCALL
.Lfunc_end28:
	.size	String_capacity_, .Lfunc_end28-String_capacity_
	.cfi_endproc
                                        # -- End function
	.globl	String_bytes_                   # -- Begin function String_bytes_
	.p2align	4, 0x90
	.type	String_bytes_,@function
String_bytes_:                          # @String_bytes_
	.cfi_startproc
# %bb.0:
	movq	40(%rdi), %rax
	movabsq	$6499063144389013426, %rcx      # imm = 0x5A314F7F0E23EFB2
	imulq	8(%rdi), %rcx
	movq	%rcx, %rdx
	shrq	$32, %rdx
	xorq	%rcx, %rdx
	andq	16(%rdi), %rdx
	movslq	(%rax,%rdx,4), %rax
	movq	(%rdi,%rax,8), %rax
	movq	%rsi, %rdi
	jmpq	*(%rax)                         # TAILCALL
.Lfunc_end29:
	.size	String_bytes_, .Lfunc_end29-String_bytes_
	.cfi_endproc
                                        # -- End function
	.globl	String_append_xPtri8            # -- Begin function String_append_xPtri8
	.p2align	4, 0x90
	.type	String_append_xPtri8,@function
String_append_xPtri8:                   # @String_append_xPtri8
	.cfi_startproc
# %bb.0:
	pushq	%rbp
	.cfi_def_cfa_offset 16
	pushq	%r15
	.cfi_def_cfa_offset 24
	pushq	%r14
	.cfi_def_cfa_offset 32
	pushq	%r13
	.cfi_def_cfa_offset 40
	pushq	%r12
	.cfi_def_cfa_offset 48
	pushq	%rbx
	.cfi_def_cfa_offset 56
	subq	$184, %rsp
	.cfi_def_cfa_offset 240
	.cfi_offset %rbx, -56
	.cfi_offset %r12, -48
	.cfi_offset %r13, -40
	.cfi_offset %r14, -32
	.cfi_offset %r15, -24
	.cfi_offset %rbp, -16
	movq	%rcx, 72(%rsp)                  # 8-byte Spill
	movq	%rdx, %r14
	movq	%rsi, %rbx
	movq	%rdi, %r13
	movabsq	$6499063144389013426, %rdx      # imm = 0x5A314F7F0E23EFB2
	movq	40(%rsi), %rax
	movq	8(%rsi), %rcx
	imulq	%rdx, %rcx
	movq	%rcx, %rdx
	shrq	$32, %rdx
	xorq	%rcx, %rdx
	andq	16(%rsi), %rdx
	movl	(%rax,%rdx,4), %eax
	movslq	%eax, %r15
	movq	8(%rsi,%r15,8), %rax
	movq	%r14, %rdi
	callq	*(%rax)
	movl	%eax, %ebp
	movq	16(%rbx,%r15,8), %rax
	movq	%r14, %rdi
	callq	*(%rax)
	cmpl	%eax, %ebp
	jge	.LBB30_2
# %bb.1:
	leaq	176(%rsp), %rbp
	leaq	148(%rsp), %rax
	movq	%rax, 40(%rsp)                  # 8-byte Spill
	leaq	144(%rsp), %rax
	movq	%rax, 56(%rsp)                  # 8-byte Spill
	leaq	140(%rsp), %rax
	movq	%rax, 48(%rsp)                  # 8-byte Spill
	leaq	136(%rsp), %r12
	leaq	168(%rsp), %rax
	movq	%rax, 16(%rsp)                  # 8-byte Spill
	leaq	120(%rsp), %rax
	movq	%rax, 64(%rsp)                  # 8-byte Spill
	leaq	152(%rsp), %rax
	movq	%rax, 8(%rsp)                   # 8-byte Spill
	leaq	160(%rsp), %rax
	movq	%rax, (%rsp)                    # 8-byte Spill
	jmp	.LBB30_7
.LBB30_2:
	movq	%r13, 32(%rsp)                  # 8-byte Spill
	movq	16(%rbx,%r15,8), %rax
	movq	%r14, %rdi
	callq	*(%rax)
                                        # kill: def $eax killed $eax def $rax
	leal	(%rax,%rax), %esi
	movq	16(%rbx,%r15,8), %rax
	movq	%r14, %rdi
	callq	*8(%rax)
	movq	(%rbx,%r15,8), %rax
	movq	%r14, %rdi
	callq	*(%rax)
	movq	%rax, %r13
	movq	16(%rbx,%r15,8), %rax
	movq	%r14, %rdi
	callq	*(%rax)
	movslq	%eax, %rdi
	movq	%fs:0, %rax
	leaq	current_ptr@TPOFF(%rax), %rsi
	callq	bump_malloc_inner@PLT
	movq	(%rbx,%r15,8), %rcx
	movq	%r14, %rdi
	movq	%rax, %rsi
	callq	*8(%rcx)
	movq	8(%rbx,%r15,8), %rax
	movq	%r14, %rdi
	callq	*(%rax)
	leaq	112(%rsp), %rbp
	leaq	132(%rsp), %rsi
	leaq	128(%rsp), %rcx
	leaq	124(%rsp), %rdx
	leaq	80(%rsp), %rdi
	testl	%eax, %eax
	movq	%rdi, 64(%rsp)                  # 8-byte Spill
	movq	%rcx, 56(%rsp)                  # 8-byte Spill
	movq	%rdx, 48(%rsp)                  # 8-byte Spill
	movq	%rsi, 40(%rsp)                  # 8-byte Spill
	jle	.LBB30_3
# %bb.4:                                # %.lr.ph
	xorl	%ebp, %ebp
	.p2align	4, 0x90
.LBB30_5:                               # %._crit_edge
                                        # =>This Inner Loop Header: Depth=1
	movq	(%rbx,%r15,8), %rax
	movq	%r14, %rdi
	callq	*(%rax)
	movzbl	(%r13,%rbp), %ecx
	movb	%cl, (%rax,%rbp)
	movq	8(%rbx,%r15,8), %rax
	movq	%r14, %rdi
	callq	*(%rax)
	incq	%rbp
	cmpl	%eax, %ebp
	jl	.LBB30_5
# %bb.6:
	movq	32(%rsp), %r13                  # 8-byte Reload
	leaq	104(%rsp), %rax
	movq	%rax, 16(%rsp)                  # 8-byte Spill
	leaq	88(%rsp), %rax
	movq	%rax, 8(%rsp)                   # 8-byte Spill
	leaq	96(%rsp), %rax
	movq	%rax, (%rsp)                    # 8-byte Spill
	leaq	28(%rsp), %r12
	leaq	112(%rsp), %rbp
	jmp	.LBB30_7
.LBB30_3:
	movq	32(%rsp), %r13                  # 8-byte Reload
	leaq	104(%rsp), %rax
	movq	%rax, 16(%rsp)                  # 8-byte Spill
	leaq	88(%rsp), %rax
	movq	%rax, 8(%rsp)                   # 8-byte Spill
	leaq	96(%rsp), %rax
	movq	%rax, (%rsp)                    # 8-byte Spill
	leaq	28(%rsp), %r12
.LBB30_7:                               # %.thread
	movq	(%rbx,%r15,8), %rax
	movq	%r14, %rdi
	callq	*(%rax)
	movq	%rax, (%rbp)
	movq	8(%rbx,%r15,8), %rax
	movq	%r14, %rdi
	callq	*(%rax)
	movq	40(%rsp), %rcx                  # 8-byte Reload
	movl	%eax, (%rcx)
	movq	(%rbp), %rcx
	cltq
	movzbl	272(%rsp), %edx
	movb	%dl, (%rcx,%rax)
	movq	8(%rbx,%r15,8), %rax
	movq	%r14, %rdi
	callq	*(%rax)
                                        # kill: def $eax killed $eax def $rax
	movq	56(%rsp), %rcx                  # 8-byte Reload
	movl	%eax, (%rcx)
	movq	48(%rsp), %rcx                  # 8-byte Reload
	movl	$1, (%rcx)
	leal	1(%rax), %esi
	movl	%esi, (%r12)
	movq	8(%rbx,%r15,8), %rax
	movq	%r14, %rdi
	callq	*8(%rax)
	movq	16(%rsp), %rax                  # 8-byte Reload
	movq	%rbx, (%rax)
	movq	(%rsp), %rax                    # 8-byte Reload
	movq	%r14, (%rax)
	movq	72(%rsp), %rdx                  # 8-byte Reload
	movq	8(%rsp), %rax                   # 8-byte Reload
	movq	%rdx, (%rax)
	movq	64(%rsp), %rdi                  # 8-byte Reload
	movl	%r15d, (%rdi)
	movq	40(%rbx), %rax
	movabsq	$6499063144389013426, %rsi      # imm = 0x5A314F7F0E23EFB2
	imulq	8(%rbx), %rsi
	movq	%rsi, %rcx
	shrq	$32, %rcx
	xorq	%rsi, %rcx
	andq	16(%rbx), %rcx
	movl	(%rax,%rcx,4), %eax
	movl	%eax, (%rdi)
	movl	%eax, 24(%r13)
	movq	%rdx, 16(%r13)
	movq	%r14, 8(%r13)
	movq	%rbx, (%r13)
	movq	%r13, %rax
	addq	$184, %rsp
	.cfi_def_cfa_offset 56
	popq	%rbx
	.cfi_def_cfa_offset 48
	popq	%r12
	.cfi_def_cfa_offset 40
	popq	%r13
	.cfi_def_cfa_offset 32
	popq	%r14
	.cfi_def_cfa_offset 24
	popq	%r15
	.cfi_def_cfa_offset 16
	popq	%rbp
	.cfi_def_cfa_offset 8
	retq
.Lfunc_end30:
	.size	String_append_xPtri8, .Lfunc_end30-String_append_xPtri8
	.cfi_endproc
                                        # -- End function
	.globl	String_extend_strString         # -- Begin function String_extend_strString
	.p2align	4, 0x90
	.type	String_extend_strString,@function
String_extend_strString:                # @String_extend_strString
	.cfi_startproc
# %bb.0:
	pushq	%rbp
	.cfi_def_cfa_offset 16
	pushq	%r15
	.cfi_def_cfa_offset 24
	pushq	%r14
	.cfi_def_cfa_offset 32
	pushq	%r13
	.cfi_def_cfa_offset 40
	pushq	%r12
	.cfi_def_cfa_offset 48
	pushq	%rbx
	.cfi_def_cfa_offset 56
	subq	$168, %rsp
	.cfi_def_cfa_offset 224
	.cfi_offset %rbx, -56
	.cfi_offset %r12, -48
	.cfi_offset %r13, -40
	.cfi_offset %r14, -32
	.cfi_offset %r15, -24
	.cfi_offset %rbp, -16
	movq	%rcx, 64(%rsp)                  # 8-byte Spill
	movq	%rdx, %r14
	movq	%rsi, %rbx
	movq	%rdi, 72(%rsp)                  # 8-byte Spill
	movq	264(%rsp), %r13
	movq	272(%rsp), %rdx
	movq	256(%rsp), %r12
	movabsq	$6499063144389013426, %rdi      # imm = 0x5A314F7F0E23EFB2
	movq	40(%rsi), %rax
	movq	8(%rsi), %rcx
	imulq	%rdi, %rcx
	movq	%rcx, %r8
	shrq	$32, %r8
	xorq	%rcx, %r8
	andq	16(%rsi), %r8
	movl	(%rax,%r8,4), %eax
	movl	%eax, 4(%rsp)                   # 4-byte Spill
	movq	40(%r12), %rax
	movq	8(%r12), %rcx
	imulq	%rdi, %rcx
	movq	%rcx, %rdi
	shrq	$32, %rdi
	xorq	%rcx, %rdi
	andq	16(%r12), %rdi
	movslq	(%rax,%rdi,4), %r15
	movq	%rsp, %rbp
	movq	%r12, %rdi
	movq	%r13, %rsi
	movl	%r15d, %ecx
	movq	%rbp, %r8
	callq	*56(%r12,%r15,8)
	subq	$8, %rsp
	.cfi_adjust_cfa_offset 8
	movq	%r12, %rdi
	movq	%r13, %rsi
	movq	280(%rsp), %rdx
	movl	%r15d, %ecx
	movq	%r12, %r8
	movq	%r13, %r9
	pushq	%rbp
	.cfi_adjust_cfa_offset 8
	pushq	%r15
	.cfi_adjust_cfa_offset 8
	pushq	%rdx
	movq	%rdx, %rbp
	.cfi_adjust_cfa_offset 8
	callq	*%rax
	addq	$32, %rsp
	.cfi_adjust_cfa_offset -32
	movq	%rax, 56(%rsp)
	movq	%r12, %rdi
	movq	%r13, %rsi
	movq	%rbp, %rdx
	movl	%r15d, %ecx
	movq	%rsp, %r8
	callq	*40(%r12,%r15,8)
	subq	$8, %rsp
	.cfi_adjust_cfa_offset 8
	movq	%r12, %rdi
	movq	%r13, %rsi
	movq	%rbp, %rdx
	movl	%r15d, %ecx
	movq	%r12, %r8
	movq	%r13, %r9
	leaq	8(%rsp), %r10
	pushq	%r10
	.cfi_adjust_cfa_offset 8
	pushq	%r15
	.cfi_adjust_cfa_offset 8
	pushq	%rbp
	.cfi_adjust_cfa_offset 8
	callq	*%rax
	addq	$32, %rsp
	.cfi_adjust_cfa_offset -32
	movl	%eax, %ebp
	movslq	4(%rsp), %r13                   # 4-byte Folded Reload
	movq	8(%rbx,%r13,8), %rax
	movq	%r14, %rdi
	callq	*(%rax)
	movl	%eax, %r12d
	addl	%ebp, %r12d
	movq	16(%rbx,%r13,8), %rax
	movq	%r14, %rdi
	callq	*(%rax)
	movl	%eax, %r15d
	movq	8(%rbx,%r13,8), %rax
	movq	%r14, %rdi
	callq	*(%rax)
	movl	%eax, %esi
	cmpl	%r15d, %r12d
	jge	.LBB31_5
# %bb.1:
	movq	8(%rbx,%r13,8), %rax
	movq	%r14, %rdi
	movl	%esi, %r15d
	callq	*(%rax)
	movl	%r15d, %edx
	addl	%ebp, %eax
	leaq	132(%rsp), %rcx
	movq	%rcx, 24(%rsp)                  # 8-byte Spill
	leaq	128(%rsp), %rcx
	movq	%rcx, 32(%rsp)                  # 8-byte Spill
	leaq	112(%rsp), %r12
	leaq	16(%rsp), %r15
	leaq	152(%rsp), %rcx
	movq	%rcx, 48(%rsp)                  # 8-byte Spill
	leaq	160(%rsp), %rcx
	movq	%rcx, 40(%rsp)                  # 8-byte Spill
	cmpl	%eax, %edx
	jge	.LBB31_12
# %bb.2:                                # %.lr.ph146
	movq	56(%rsp), %r15
	movslq	%edx, %r12
	movl	%ebp, 4(%rsp)                   # 4-byte Spill
	xorl	%ebp, %ebp
	.p2align	4, 0x90
.LBB31_3:                               # %._crit_edge
                                        # =>This Inner Loop Header: Depth=1
	movslq	%ebp, %rbp
	movq	(%rbx,%r13,8), %rax
	movq	%r14, %rdi
	callq	*(%rax)
	movzbl	(%r15,%rbp), %ecx
	movb	%cl, (%rax,%r12)
	incl	%ebp
	movq	8(%rbx,%r13,8), %rax
	movq	%r14, %rdi
	callq	*(%rax)
	addl	4(%rsp), %eax                   # 4-byte Folded Reload
	incq	%r12
	cmpl	%eax, %r12d
	jl	.LBB31_3
# %bb.4:
	movl	4(%rsp), %ebp                   # 4-byte Reload
	leaq	16(%rsp), %r15
	leaq	112(%rsp), %r12
	jmp	.LBB31_12
.LBB31_5:
	addl	%ebp, %esi
	movq	16(%rbx,%r13,8), %rax
	movq	%r14, %rdi
	callq	*8(%rax)
	movq	(%rbx,%r13,8), %rax
	movq	%r14, %rdi
	callq	*(%rax)
	movq	%rax, 104(%rsp)
	movq	16(%rbx,%r13,8), %rax
	movq	%r14, %rdi
	callq	*(%rax)
	movslq	%eax, %rdi
	movq	%fs:0, %rax
	leaq	current_ptr@TPOFF(%rax), %rsi
	callq	bump_malloc_inner@PLT
	movq	(%rbx,%r13,8), %rcx
	movq	%r14, %rdi
	movq	%rax, %rsi
	callq	*8(%rcx)
	movq	8(%rbx,%r13,8), %rax
	movq	%r14, %rdi
	callq	*(%rax)
	addl	%ebp, %eax
	leaq	124(%rsp), %rcx
	movq	%rcx, 24(%rsp)                  # 8-byte Spill
	leaq	120(%rsp), %rcx
	movq	%rcx, 32(%rsp)                  # 8-byte Spill
	leaq	96(%rsp), %r12
	leaq	8(%rsp), %r15
	leaq	136(%rsp), %rcx
	movq	%rcx, 48(%rsp)                  # 8-byte Spill
	leaq	144(%rsp), %rcx
	movq	%rcx, 40(%rsp)                  # 8-byte Spill
	testl	%eax, %eax
	jle	.LBB31_12
# %bb.6:                                # %.lr.ph
	movl	%ebp, 4(%rsp)                   # 4-byte Spill
	movq	56(%rsp), %rax
	movq	%rax, 88(%rsp)                  # 8-byte Spill
	xorl	%r12d, %r12d
	movq	104(%rsp), %rax
	movq	%rax, 80(%rsp)                  # 8-byte Spill
	xorl	%ebp, %ebp
	jmp	.LBB31_7
	.p2align	4, 0x90
.LBB31_8:                               #   in Loop: Header=BB31_7 Depth=1
	movq	80(%rsp), %rcx                  # 8-byte Reload
	movzbl	(%rcx,%r12), %ecx
	movb	%cl, (%rax,%r12)
.LBB31_10:                              # %._crit_edge1
                                        #   in Loop: Header=BB31_7 Depth=1
	movq	8(%rbx,%r13,8), %rax
	movq	%r14, %rdi
	callq	*(%rax)
	addl	4(%rsp), %eax                   # 4-byte Folded Reload
	incq	%r12
	cmpl	%eax, %r12d
	jge	.LBB31_11
.LBB31_7:                               # =>This Inner Loop Header: Depth=1
	movq	8(%rbx,%r13,8), %rax
	movq	%r14, %rdi
	callq	*(%rax)
	movl	%eax, %r15d
	movq	(%rbx,%r13,8), %rax
	movq	%r14, %rdi
	callq	*(%rax)
	cmpl	%r15d, %r12d
	jl	.LBB31_8
# %bb.9:                                #   in Loop: Header=BB31_7 Depth=1
	movslq	%ebp, %rbp
	movq	88(%rsp), %rcx                  # 8-byte Reload
	movzbl	(%rcx,%rbp), %ecx
	movb	%cl, (%rax,%r12)
	incl	%ebp
	jmp	.LBB31_10
.LBB31_11:
	movl	4(%rsp), %ebp                   # 4-byte Reload
	leaq	8(%rsp), %r15
	leaq	96(%rsp), %r12
.LBB31_12:                              # %.thread
	movq	8(%rbx,%r13,8), %rax
	movq	%r14, %rdi
	callq	*(%rax)
	movq	24(%rsp), %rcx                  # 8-byte Reload
	movl	%eax, (%rcx)
	addl	%eax, %ebp
	movq	32(%rsp), %rax                  # 8-byte Reload
	movl	%ebp, (%rax)
	movq	8(%rbx,%r13,8), %rax
	movq	%r14, %rdi
	movl	%ebp, %esi
	callq	*8(%rax)
	movq	%rbx, (%r12)
	movq	40(%rsp), %rax                  # 8-byte Reload
	movq	%r14, (%rax)
	movq	64(%rsp), %rdx                  # 8-byte Reload
	movq	48(%rsp), %rax                  # 8-byte Reload
	movq	%rdx, (%rax)
	movl	%r13d, (%r15)
	movq	40(%rbx), %rax
	movabsq	$6499063144389013426, %rsi      # imm = 0x5A314F7F0E23EFB2
	imulq	8(%rbx), %rsi
	movq	%rsi, %rcx
	shrq	$32, %rcx
	xorq	%rsi, %rcx
	andq	16(%rbx), %rcx
	movl	(%rax,%rcx,4), %ecx
	movl	%ecx, (%r15)
	movq	72(%rsp), %rax                  # 8-byte Reload
	movl	%ecx, 24(%rax)
	movq	%rdx, 16(%rax)
	movq	%r14, 8(%rax)
	movq	%rbx, (%rax)
	addq	$168, %rsp
	.cfi_def_cfa_offset 56
	popq	%rbx
	.cfi_def_cfa_offset 48
	popq	%r12
	.cfi_def_cfa_offset 40
	popq	%r13
	.cfi_def_cfa_offset 32
	popq	%r14
	.cfi_def_cfa_offset 24
	popq	%r15
	.cfi_def_cfa_offset 16
	popq	%rbp
	.cfi_def_cfa_offset 8
	retq
.Lfunc_end31:
	.size	String_extend_strString, .Lfunc_end31-String_extend_strString
	.cfi_endproc
                                        # -- End function
	.globl	String__index_xPtri32           # -- Begin function String__index_xPtri32
	.p2align	4, 0x90
	.type	String__index_xPtri32,@function
String__index_xPtri32:                  # @String__index_xPtri32
	.cfi_startproc
# %bb.0:
	pushq	%rbp
	.cfi_def_cfa_offset 16
	pushq	%r15
	.cfi_def_cfa_offset 24
	pushq	%r14
	.cfi_def_cfa_offset 32
	pushq	%r13
	.cfi_def_cfa_offset 40
	pushq	%r12
	.cfi_def_cfa_offset 48
	pushq	%rbx
	.cfi_def_cfa_offset 56
	subq	$24, %rsp
	.cfi_def_cfa_offset 80
	.cfi_offset %rbx, -56
	.cfi_offset %r12, -48
	.cfi_offset %r13, -40
	.cfi_offset %r14, -32
	.cfi_offset %r15, -24
	.cfi_offset %rbp, -16
	movq	%rsi, %r15
	movq	%rdi, %rbp
	movl	104(%rsp), %r14d
	movq	40(%rdi), %rax
	movabsq	$6499063144389013426, %rcx      # imm = 0x5A314F7F0E23EFB2
	imulq	8(%rdi), %rcx
	movq	%rcx, %rdx
	shrq	$32, %rdx
	xorq	%rcx, %rdx
	andq	16(%rdi), %rdx
	movslq	(%rax,%rdx,4), %r12
	movq	8(%rdi,%r12,8), %rax
	movq	%rsi, %rdi
	callq	*(%rax)
	decl	%eax
	cmpl	%eax, %r14d
	jle	.LBB32_2
# %bb.1:
	movq	current_coroutine@GOTTPOFF(%rip), %rax
	movq	%fs:0, %r13
	movq	%r12, 8(%rsp)                   # 8-byte Spill
	movq	(%r13,%rax), %r12
	addq	$8, %r12
	addq	into_caller_buf@GOTTPOFF(%rip), %r13
	movq	%r15, 16(%rsp)                  # 8-byte Spill
	callq	context_switch@PLT
	movq	8(%rsp), %r12                   # 8-byte Reload
	movq	16(%rsp), %r15                  # 8-byte Reload
	movl	104(%rsp), %r14d
.LBB32_2:                               # %._crit_edge
	testl	%r14d, %r14d
	js	.LBB32_4
# %bb.3:
	movq	(%rbp,%r12,8), %rax
	movq	%r15, %rdi
	callq	*(%rax)
	movl	%r14d, %ecx
	addq	%rax, %rcx
	jmp	.LBB32_7
.LBB32_4:
	movq	8(%rbp,%r12,8), %rax
	movq	%r15, %rdi
	callq	*(%rax)
	addl	%r14d, %eax
	jns	.LBB32_6
# %bb.5:
	movq	current_coroutine@GOTTPOFF(%rip), %rax
	movq	%fs:0, %r13
	movq	%r12, 8(%rsp)                   # 8-byte Spill
	movq	(%r13,%rax), %r12
	addq	$8, %r12
	addq	into_caller_buf@GOTTPOFF(%rip), %r13
	movq	%r15, 16(%rsp)                  # 8-byte Spill
	callq	context_switch@PLT
	movq	8(%rsp), %r12                   # 8-byte Reload
	movq	16(%rsp), %r15                  # 8-byte Reload
	movl	104(%rsp), %r14d
.LBB32_6:                               # %._crit_edge1
	movq	(%rbp,%r12,8), %rax
	movq	%r15, %rdi
	callq	*(%rax)
	movq	%rax, %rbx
	movq	8(%rbp,%r12,8), %rax
	movq	%r15, %rdi
	callq	*(%rax)
	addl	%r14d, %eax
	movslq	%eax, %rcx
	addq	%rbx, %rcx
.LBB32_7:
	movzbl	(%rcx), %eax
	addq	$24, %rsp
	.cfi_def_cfa_offset 56
	popq	%rbx
	.cfi_def_cfa_offset 48
	popq	%r12
	.cfi_def_cfa_offset 40
	popq	%r13
	.cfi_def_cfa_offset 32
	popq	%r14
	.cfi_def_cfa_offset 24
	popq	%r15
	.cfi_def_cfa_offset 16
	popq	%rbp
	.cfi_def_cfa_offset 8
	retq
.Lfunc_end32:
	.size	String__index_xPtri32, .Lfunc_end32-String__index_xPtri32
	.cfi_endproc
                                        # -- End function
	.globl	String__EQ_otherString          # -- Begin function String__EQ_otherString
	.p2align	4, 0x90
	.type	String__EQ_otherString,@function
String__EQ_otherString:                 # @String__EQ_otherString
	.cfi_startproc
# %bb.0:
	pushq	%rbp
	.cfi_def_cfa_offset 16
	pushq	%r15
	.cfi_def_cfa_offset 24
	pushq	%r14
	.cfi_def_cfa_offset 32
	pushq	%r13
	.cfi_def_cfa_offset 40
	pushq	%r12
	.cfi_def_cfa_offset 48
	pushq	%rbx
	.cfi_def_cfa_offset 56
	subq	$56, %rsp
	.cfi_def_cfa_offset 112
	.cfi_offset %rbx, -56
	.cfi_offset %r12, -48
	.cfi_offset %r13, -40
	.cfi_offset %r14, -32
	.cfi_offset %r15, -24
	.cfi_offset %rbp, -16
	movq	%rsi, %r12
	movq	%rdi, %r14
	movq	152(%rsp), %r15
	movq	136(%rsp), %rbp
	movq	40(%rdi), %rax
	movabsq	$6499063144389013426, %rcx      # imm = 0x5A314F7F0E23EFB2
	movq	8(%rdi), %rdx
	imulq	%rcx, %rdx
	movq	%rdx, %rsi
	shrq	$32, %rsi
	xorq	%rdx, %rsi
	andq	16(%rdi), %rsi
	movslq	(%rax,%rsi,4), %rsi
	movq	40(%rbp), %rax
	imulq	8(%rbp), %rcx
	movq	%rcx, %rdx
	shrq	$32, %rdx
	xorq	%rcx, %rdx
	andq	16(%rbp), %rdx
	movslq	(%rax,%rdx,4), %rbx
	movq	%rsi, 16(%rsp)                  # 8-byte Spill
	movq	8(%rdi,%rsi,8), %rax
	movq	%r12, %rdi
	callq	*(%rax)
	movl	%eax, 24(%rsp)                  # 4-byte Spill
	leaq	8(%rsp), %r13
	movq	%rbp, %rdi
	movq	144(%rsp), %rsi
	movq	%r15, %rdx
	movl	%ebx, %ecx
	movq	%r13, %r8
	callq	*40(%rbp,%rbx,8)
	subq	$8, %rsp
	.cfi_adjust_cfa_offset 8
	movq	%rbp, %rdi
	movq	152(%rsp), %rsi
	movq	%r15, %rdx
	movl	%ebx, %ecx
	movq	%rbp, %r8
	movq	%rsi, %r9
	pushq	%r13
	.cfi_adjust_cfa_offset 8
	movq	%rbx, 64(%rsp)                  # 8-byte Spill
	pushq	%rbx
	.cfi_adjust_cfa_offset 8
	pushq	%r15
	.cfi_adjust_cfa_offset 8
	callq	*%rax
	addq	$32, %rsp
	.cfi_adjust_cfa_offset -32
	cmpl	%eax, 24(%rsp)                  # 4-byte Folded Reload
	jne	.LBB33_1
# %bb.2:                                # %.preheader
	xorl	%ebx, %ebx
	movq	16(%rsp), %r15                  # 8-byte Reload
	movq	%r12, 40(%rsp)                  # 8-byte Spill
	movq	%r14, 32(%rsp)                  # 8-byte Spill
	movq	48(%rsp), %r13                  # 8-byte Reload
	.p2align	4, 0x90
.LBB33_3:                               # =>This Inner Loop Header: Depth=1
	movq	8(%r14,%r15,8), %rax
	movq	%r12, %rdi
	callq	*(%rax)
	cmpl	%eax, %ebx
	setge	%cl
	jge	.LBB33_4
# %bb.5:                                #   in Loop: Header=BB33_3 Depth=1
	movl	%ecx, 16(%rsp)                  # 4-byte Spill
	movq	(%r14,%r15,8), %rax
	movq	%r12, %rdi
	callq	*(%rax)
	movq	%rax, 24(%rsp)                  # 8-byte Spill
	movq	136(%rsp), %r12
	movq	%r12, %rdi
	movq	144(%rsp), %rbp
	movq	%rbp, %rsi
	movq	152(%rsp), %r14
	movq	%r14, %rdx
	movl	%r13d, %ecx
	leaq	8(%rsp), %r8
	callq	*56(%r12,%r13,8)
	subq	$8, %rsp
	.cfi_adjust_cfa_offset 8
	movq	%r12, %rdi
	movq	%rbp, %rsi
	movq	%r14, %rdx
	movl	%r13d, %ecx
	movq	%r12, %r8
	movq	%rbp, %r9
	leaq	16(%rsp), %r10
	pushq	%r10
	.cfi_adjust_cfa_offset 8
	pushq	%r13
	.cfi_adjust_cfa_offset 8
	pushq	%r14
	movq	64(%rsp), %r14                  # 8-byte Reload
	.cfi_adjust_cfa_offset 8
	callq	*%rax
	addq	$32, %rsp
	.cfi_adjust_cfa_offset -32
	movq	24(%rsp), %rcx                  # 8-byte Reload
	movzbl	(%rcx,%rbx), %ecx
	movq	40(%rsp), %r12                  # 8-byte Reload
	cmpb	(%rax,%rbx), %cl
	leaq	1(%rbx), %rbx
	je	.LBB33_3
# %bb.6:
	leaq	14(%rsp), %rax
	movl	16(%rsp), %ecx                  # 4-byte Reload
	jmp	.LBB33_7
.LBB33_1:
	leaq	15(%rsp), %rax
	xorl	%ecx, %ecx
	jmp	.LBB33_7
.LBB33_4:
	leaq	13(%rsp), %rax
.LBB33_7:                               # %.thread
	movb	%cl, (%rax)
	movl	%ecx, %eax
	addq	$56, %rsp
	.cfi_def_cfa_offset 56
	popq	%rbx
	.cfi_def_cfa_offset 48
	popq	%r12
	.cfi_def_cfa_offset 40
	popq	%r13
	.cfi_def_cfa_offset 32
	popq	%r14
	.cfi_def_cfa_offset 24
	popq	%r15
	.cfi_def_cfa_offset 16
	popq	%rbp
	.cfi_def_cfa_offset 8
	retq
.Lfunc_end33:
	.size	String__EQ_otherString, .Lfunc_end33-String__EQ_otherString
	.cfi_endproc
                                        # -- End function
	.globl	String_pop_                     # -- Begin function String_pop_
	.p2align	4, 0x90
	.type	String_pop_,@function
String_pop_:                            # @String_pop_
	.cfi_startproc
# %bb.0:
	pushq	%r15
	.cfi_def_cfa_offset 16
	pushq	%r14
	.cfi_def_cfa_offset 24
	pushq	%r12
	.cfi_def_cfa_offset 32
	pushq	%rbx
	.cfi_def_cfa_offset 40
	pushq	%rax
	.cfi_def_cfa_offset 48
	.cfi_offset %rbx, -40
	.cfi_offset %r12, -32
	.cfi_offset %r14, -24
	.cfi_offset %r15, -16
	movq	%rsi, %rbx
	movq	%rdi, %r14
	movq	40(%rdi), %rax
	movabsq	$6499063144389013426, %rcx      # imm = 0x5A314F7F0E23EFB2
	imulq	8(%rdi), %rcx
	movq	%rcx, %rdx
	shrq	$32, %rdx
	xorq	%rcx, %rdx
	andq	16(%rdi), %rdx
	movslq	(%rax,%rdx,4), %r12
	movq	8(%rdi,%r12,8), %rax
	movq	%rsi, %rdi
	callq	*(%rax)
	testl	%eax, %eax
	je	.LBB34_1
# %bb.2:
	movq	8(%r14,%r12,8), %rax
	movq	%rbx, %rdi
	callq	*(%rax)
                                        # kill: def $eax killed $eax def $rax
	leal	-1(%rax), %esi
	movq	8(%r14,%r12,8), %rax
	movq	%rbx, %rdi
	callq	*8(%rax)
	movq	(%r14,%r12,8), %rax
	movq	%rbx, %rdi
	callq	*(%rax)
	movq	%rax, %r15
	movq	8(%r14,%r12,8), %rax
	movq	%rbx, %rdi
	callq	*(%rax)
	cltq
	movzbl	(%r15,%rax), %edx
	movq	i8_typ@GOTPCREL(%rip), %rax
	jmp	.LBB34_3
.LBB34_1:
	movq	nil_typ@GOTPCREL(%rip), %rax
                                        # implicit-def: $dl
.LBB34_3:
	addq	$8, %rsp
	.cfi_def_cfa_offset 40
	popq	%rbx
	.cfi_def_cfa_offset 32
	popq	%r12
	.cfi_def_cfa_offset 24
	popq	%r14
	.cfi_def_cfa_offset 16
	popq	%r15
	.cfi_def_cfa_offset 8
	retq
.Lfunc_end34:
	.size	String_pop_, .Lfunc_end34-String_pop_
	.cfi_endproc
                                        # -- End function
	.globl	String_copy_                    # -- Begin function String_copy_
	.p2align	4, 0x90
	.type	String_copy_,@function
String_copy_:                           # @String_copy_
	.cfi_startproc
# %bb.0:
	pushq	%rbp
	.cfi_def_cfa_offset 16
	pushq	%r15
	.cfi_def_cfa_offset 24
	pushq	%r14
	.cfi_def_cfa_offset 32
	pushq	%r13
	.cfi_def_cfa_offset 40
	pushq	%r12
	.cfi_def_cfa_offset 48
	pushq	%rbx
	.cfi_def_cfa_offset 56
	pushq	%rax
	.cfi_def_cfa_offset 64
	.cfi_offset %rbx, -56
	.cfi_offset %r12, -48
	.cfi_offset %r13, -40
	.cfi_offset %r14, -32
	.cfi_offset %r15, -24
	.cfi_offset %rbp, -16
	movq	%rdx, %r14
	movq	%rsi, %r15
	movq	%rdi, (%rsp)                    # 8-byte Spill
	movq	40(%rsi), %rax
	movabsq	$6499063144389013426, %rcx      # imm = 0x5A314F7F0E23EFB2
	imulq	8(%rsi), %rcx
	movq	%rcx, %rdx
	shrq	$32, %rdx
	xorq	%rcx, %rdx
	andq	16(%rsi), %rdx
	movslq	(%rax,%rdx,4), %rbx
	movq	8(%rsi,%rbx,8), %rax
	movq	%r14, %rdi
	callq	*(%rax)
	movslq	%eax, %rdi
	movq	%fs:0, %rax
	leaq	current_ptr@TPOFF(%rax), %rsi
	callq	bump_malloc_inner@PLT
	movq	%rax, %r12
	movq	8(%r15,%rbx,8), %rax
	movq	%r14, %rdi
	callq	*(%rax)
	testl	%eax, %eax
	jle	.LBB35_3
# %bb.1:                                # %.lr.ph
	xorl	%r13d, %r13d
	.p2align	4, 0x90
.LBB35_2:                               # %._crit_edge
                                        # =>This Inner Loop Header: Depth=1
	movq	(%r15,%rbx,8), %rax
	movq	%r14, %rdi
	callq	*(%rax)
	movzbl	(%rax,%r13), %eax
	movb	%al, (%r12,%r13)
	movq	8(%r15,%rbx,8), %rax
	movq	%r14, %rdi
	callq	*(%rax)
	incq	%r13
	cmpl	%eax, %r13d
	jl	.LBB35_2
.LBB35_3:                               # %._crit_edge._crit_edge
	movq	8(%r15,%rbx,8), %rax
	movq	%r14, %rdi
	callq	*(%rax)
	movq	8(%r15,%rbx,8), %rax
	movq	%r14, %rdi
	callq	*(%rax)
	movq	%fs:0, %rax
	leaq	current_ptr@TPOFF(%rax), %rsi
	movl	$16, %edi
	callq	bump_malloc_inner@PLT
	movq	%rax, %r13
	movq	8(%r15,%rbx,8), %rax
	movq	%r14, %rdi
	callq	*(%rax)
	movl	%eax, %ebp
	movq	8(%r15,%rbx,8), %rax
	movq	%r14, %rdi
	callq	*(%rax)
	movq	String@GOTPCREL(%rip), %rcx
	movq	%r12, (%r13)
	movl	%ebp, 8(%r13)
	movl	%eax, 12(%r13)
	movq	(%rsp), %rax                    # 8-byte Reload
	movq	%rcx, (%rax)
	movq	%r13, 8(%rax)
	movl	$9, 24(%rax)
	addq	$8, %rsp
	.cfi_def_cfa_offset 56
	popq	%rbx
	.cfi_def_cfa_offset 48
	popq	%r12
	.cfi_def_cfa_offset 40
	popq	%r13
	.cfi_def_cfa_offset 32
	popq	%r14
	.cfi_def_cfa_offset 24
	popq	%r15
	.cfi_def_cfa_offset 16
	popq	%rbp
	.cfi_def_cfa_offset 8
	retq
.Lfunc_end35:
	.size	String_copy_, .Lfunc_end35-String_copy_
	.cfi_endproc
                                        # -- End function
	.globl	String_c_string_                # -- Begin function String_c_string_
	.p2align	4, 0x90
	.type	String_c_string_,@function
String_c_string_:                       # @String_c_string_
	.cfi_startproc
# %bb.0:
	pushq	%r15
	.cfi_def_cfa_offset 16
	pushq	%r14
	.cfi_def_cfa_offset 24
	pushq	%r13
	.cfi_def_cfa_offset 32
	pushq	%r12
	.cfi_def_cfa_offset 40
	pushq	%rbx
	.cfi_def_cfa_offset 48
	.cfi_offset %rbx, -48
	.cfi_offset %r12, -40
	.cfi_offset %r13, -32
	.cfi_offset %r14, -24
	.cfi_offset %r15, -16
	movq	%rsi, %rbx
	movq	%rdi, %r14
	movq	40(%rdi), %rax
	movabsq	$6499063144389013426, %rcx      # imm = 0x5A314F7F0E23EFB2
	imulq	8(%rdi), %rcx
	movq	%rcx, %rdx
	shrq	$32, %rdx
	xorq	%rcx, %rdx
	andq	16(%rdi), %rdx
	movslq	(%rax,%rdx,4), %r12
	movq	8(%rdi,%r12,8), %rax
	movq	%rsi, %rdi
	callq	*(%rax)
	incl	%eax
	movslq	%eax, %rdi
	movq	%fs:0, %rax
	leaq	current_ptr@TPOFF(%rax), %rsi
	callq	bump_malloc_inner@PLT
	movq	%rax, %r15
	movq	8(%r14,%r12,8), %rax
	movq	%rbx, %rdi
	callq	*(%rax)
	testl	%eax, %eax
	jle	.LBB36_3
# %bb.1:                                # %.lr.ph
	xorl	%r13d, %r13d
	.p2align	4, 0x90
.LBB36_2:                               # %._crit_edge
                                        # =>This Inner Loop Header: Depth=1
	movq	(%r14,%r12,8), %rax
	movq	%rbx, %rdi
	callq	*(%rax)
	movzbl	(%rax,%r13), %eax
	movb	%al, (%r15,%r13)
	movq	8(%r14,%r12,8), %rax
	movq	%rbx, %rdi
	callq	*(%rax)
	incq	%r13
	cmpl	%eax, %r13d
	jl	.LBB36_2
.LBB36_3:                               # %._crit_edge._crit_edge
	movq	8(%r14,%r12,8), %rax
	movq	%rbx, %rdi
	callq	*(%rax)
	cltq
	movb	$0, (%r15,%rax)
	movq	%r15, %rax
	popq	%rbx
	.cfi_def_cfa_offset 40
	popq	%r12
	.cfi_def_cfa_offset 32
	popq	%r13
	.cfi_def_cfa_offset 24
	popq	%r14
	.cfi_def_cfa_offset 16
	popq	%r15
	.cfi_def_cfa_offset 8
	retq
.Lfunc_end36:
	.size	String_c_string_, .Lfunc_end36-String_c_string_
	.cfi_endproc
                                        # -- End function
	.globl	String_iterator_                # -- Begin function String_iterator_
	.p2align	4, 0x90
	.type	String_iterator_,@function
String_iterator_:                       # @String_iterator_
# %bb.0:
	pushq	%r15
	pushq	%r14
	pushq	%r12
	pushq	%rbx
	pushq	%rax
	movq	%rcx, %rbx
	movq	%rdx, %r14
	movq	%rsi, %r15
	movq	%rdi, %r12
	movq	%fs:0, %rax
	leaq	current_ptr@TPOFF(%rax), %rsi
	movl	$40, %edi
	callq	bump_malloc_inner@PLT
	movq	StringIterator@GOTPCREL(%rip), %rcx
	movq	40(%r15), %rdx
	movabsq	$6499063144389013426, %rsi      # imm = 0x5A314F7F0E23EFB2
	imulq	8(%r15), %rsi
	movq	%rsi, %rdi
	shrq	$32, %rdi
	xorq	%rsi, %rdi
	andq	16(%r15), %rdi
	movl	(%rdx,%rdi,4), %edx
	movq	%r15, (%rax)
	movq	%r14, 8(%rax)
	movq	%rbx, 16(%rax)
	movl	%edx, 24(%rax)
	movl	$0, 32(%rax)
	movq	%rax, 8(%r12)
	movq	%rcx, (%r12)
	movl	$15, 24(%r12)
	movq	%r12, %rax
	addq	$8, %rsp
	popq	%rbx
	popq	%r12
	popq	%r14
	popq	%r15
	retq
.Lfunc_end37:
	.size	String_iterator_, .Lfunc_end37-String_iterator_
                                        # -- End function
	.globl	String_repr_                    # -- Begin function String_repr_
	.p2align	4, 0x90
	.type	String_repr_,@function
String_repr_:                           # @String_repr_
# %bb.0:
	movq	%rdi, %rax
	movq	40(%rsi), %rdi
	movabsq	$6499063144389013426, %r8       # imm = 0x5A314F7F0E23EFB2
	imulq	8(%rsi), %r8
	movq	%r8, %r9
	shrq	$32, %r9
	xorq	%r8, %r9
	andq	16(%rsi), %r9
	movl	(%rdi,%r9,4), %edi
	movq	%rcx, 16(%rax)
	movq	%rdx, 8(%rax)
	movq	%rsi, (%rax)
	movl	%edi, 24(%rax)
	retq
.Lfunc_end38:
	.size	String_repr_, .Lfunc_end38-String_repr_
                                        # -- End function
	.globl	_size_StringIterator            # -- Begin function _size_StringIterator
	.p2align	4, 0x90
	.type	_size_StringIterator,@function
_size_StringIterator:                   # @_size_StringIterator
# %bb.0:
	movl	$40, %eax
	movl	$8, %edx
	retq
.Lfunc_end39:
	.size	_size_StringIterator, .Lfunc_end39-_size_StringIterator
                                        # -- End function
	.globl	StringIterator_B_init_strString # -- Begin function StringIterator_B_init_strString
	.p2align	4, 0x90
	.type	StringIterator_B_init_strString,@function
StringIterator_B_init_strString:        # @StringIterator_B_init_strString
# %bb.0:
	movq	104(%rdi), %rax
	retq
.Lfunc_end40:
	.size	StringIterator_B_init_strString, .Lfunc_end40-StringIterator_B_init_strString
                                        # -- End function
	.globl	StringIterator_B_next_          # -- Begin function StringIterator_B_next_
	.p2align	4, 0x90
	.type	StringIterator_B_next_,@function
StringIterator_B_next_:                 # @StringIterator_B_next_
# %bb.0:
	movq	112(%rdi), %rax
	retq
.Lfunc_end41:
	.size	StringIterator_B_next_, .Lfunc_end41-StringIterator_B_next_
                                        # -- End function
	.globl	StringIterator_init_strString   # -- Begin function StringIterator_init_strString
	.p2align	4, 0x90
	.type	StringIterator_init_strString,@function
StringIterator_init_strString:          # @StringIterator_init_strString
	.cfi_startproc
# %bb.0:
	pushq	%r15
	.cfi_def_cfa_offset 16
	pushq	%r14
	.cfi_def_cfa_offset 24
	pushq	%rbx
	.cfi_def_cfa_offset 32
	.cfi_offset %rbx, -32
	.cfi_offset %r14, -24
	.cfi_offset %r15, -16
	movq	%rsi, %rbx
	movq	%rdi, %r14
	movq	64(%rsp), %rdx
	movq	72(%rsp), %rcx
	movq	56(%rsp), %rsi
	movq	40(%rdi), %rax
	movabsq	$-7260570988945952630, %rdi     # imm = 0x9B3D4527595EB08A
	imulq	8(%r14), %rdi
	movq	%rdi, %r8
	shrq	$32, %r8
	xorq	%rdi, %r8
	andq	16(%r14), %r8
	movslq	(%rax,%r8,4), %r15
	movq	40(%rsi), %rax
	movabsq	$6499063144389013426, %rdi      # imm = 0x5A314F7F0E23EFB2
	imulq	8(%rsi), %rdi
	movq	%rdi, %r8
	shrq	$32, %r8
	xorq	%rdi, %r8
	andq	16(%rsi), %r8
	movl	(%rax,%r8,4), %r8d
	movq	(%r14,%r15,8), %rax
	movq	%rbx, %rdi
	callq	*8(%rax)
	movq	8(%r14,%r15,8), %rax
	movq	8(%rax), %rax
	movq	%rbx, %rdi
	xorl	%esi, %esi
	popq	%rbx
	.cfi_def_cfa_offset 24
	popq	%r14
	.cfi_def_cfa_offset 16
	popq	%r15
	.cfi_def_cfa_offset 8
	jmpq	*%rax                           # TAILCALL
.Lfunc_end42:
	.size	StringIterator_init_strString, .Lfunc_end42-StringIterator_init_strString
	.cfi_endproc
                                        # -- End function
	.globl	StringIterator_next_            # -- Begin function StringIterator_next_
	.p2align	4, 0x90
	.type	StringIterator_next_,@function
StringIterator_next_:                   # @StringIterator_next_
	.cfi_startproc
# %bb.0:
	pushq	%rbp
	.cfi_def_cfa_offset 16
	pushq	%r15
	.cfi_def_cfa_offset 24
	pushq	%r14
	.cfi_def_cfa_offset 32
	pushq	%r13
	.cfi_def_cfa_offset 40
	pushq	%r12
	.cfi_def_cfa_offset 48
	pushq	%rbx
	.cfi_def_cfa_offset 56
	subq	$184, %rsp
	.cfi_def_cfa_offset 240
	.cfi_offset %rbx, -56
	.cfi_offset %r12, -48
	.cfi_offset %r13, -40
	.cfi_offset %r14, -32
	.cfi_offset %r15, -24
	.cfi_offset %rbp, -16
	movq	%rdx, %rbx
	movq	%rsi, %r15
	movq	%rdi, 64(%rsp)                  # 8-byte Spill
	movq	40(%rsi), %rax
	movabsq	$-7260570988945952630, %rcx     # imm = 0x9B3D4527595EB08A
	imulq	8(%rsi), %rcx
	movq	%rcx, %rdx
	shrq	$32, %rdx
	xorq	%rcx, %rdx
	andq	16(%rsi), %rdx
	movslq	(%rax,%rdx,4), %r14
	movq	8(%rsi,%r14,8), %rax
	movq	%rbx, %rdi
	callq	*(%rax)
	movl	%eax, 20(%rsp)                  # 4-byte Spill
	movq	%r14, 56(%rsp)                  # 8-byte Spill
	movq	(%r15,%r14,8), %rax
	leaq	152(%rsp), %rdi
	movq	%rbx, 8(%rsp)                   # 8-byte Spill
	movq	%rbx, %rsi
	callq	*(%rax)
	movslq	176(%rsp), %r13
	movq	168(%rsp), %r12
	movq	152(%rsp), %rbx
	movq	160(%rsp), %r14
	movq	%rsp, %rbp
	movq	%rbx, %rdi
	movq	%r14, %rsi
	movq	%r12, %rdx
	movl	%r13d, %ecx
	movq	%rbp, %r8
	callq	*40(%rbx,%r13,8)
	subq	$8, %rsp
	.cfi_adjust_cfa_offset 8
	movq	%rbx, %rdi
	movq	%r14, %rsi
	movq	%r12, %rdx
	movl	%r13d, %ecx
	movq	%rbx, %r8
	movq	%r14, %r9
	pushq	%rbp
	.cfi_adjust_cfa_offset 8
	pushq	%r13
	.cfi_adjust_cfa_offset 8
	pushq	%r12
	.cfi_adjust_cfa_offset 8
	callq	*%rax
	addq	$32, %rsp
	.cfi_adjust_cfa_offset -32
	cmpl	%eax, 20(%rsp)                  # 4-byte Folded Reload
	jge	.LBB43_1
# %bb.2:
	movq	56(%rsp), %rbp                  # 8-byte Reload
	movq	8(%r15,%rbp,8), %rax
	movq	8(%rsp), %rbx                   # 8-byte Reload
	movq	%rbx, %rdi
	callq	*(%rax)
                                        # kill: def $eax killed $eax def $rax
	leal	1(%rax), %esi
	movq	8(%r15,%rbp,8), %rax
	movq	%rbx, %rdi
	callq	*8(%rax)
	movq	(%r15,%rbp,8), %rax
	leaq	120(%rsp), %rdi
	movq	%rbx, %rsi
	callq	*(%rax)
	movslq	144(%rsp), %rbx
	movq	136(%rsp), %r14
	movq	120(%rsp), %r12
	movq	128(%rsp), %r13
	movq	%r12, %rdi
	movq	%r13, %rsi
	movq	%r14, %rdx
	movl	%ebx, %ecx
	movq	%rsp, %r8
	callq	*56(%r12,%rbx,8)
	subq	$8, %rsp
	.cfi_adjust_cfa_offset 8
	movq	%r12, %rdi
	movq	%r13, %rsi
	movq	%r14, %rdx
	movl	%ebx, %ecx
	movq	%r12, %r8
	movq	%r13, %r9
	leaq	8(%rsp), %r10
	pushq	%r10
	.cfi_adjust_cfa_offset 8
	pushq	%rbx
	.cfi_adjust_cfa_offset 8
	pushq	%r14
	.cfi_adjust_cfa_offset 8
	callq	*%rax
	addq	$32, %rsp
	.cfi_adjust_cfa_offset -32
	movq	8(%r15,%rbp,8), %rax
	movq	8(%rsp), %rbx                   # 8-byte Reload
	movq	%rbx, %rdi
	callq	*(%rax)
	movq	%fs:0, %rax
	leaq	current_ptr@TPOFF(%rax), %rsi
	movl	$1, %edi
	callq	bump_malloc_inner@PLT
	movq	Character@GOTPCREL(%rip), %rcx
	movq	%rcx, 24(%rsp)
	movq	%rax, 32(%rsp)
	movl	$9, 48(%rsp)
	movq	(%r15,%rbp,8), %rax
	leaq	88(%rsp), %rdi
	movq	%rbx, %rsi
	callq	*(%rax)
	movslq	112(%rsp), %rbx
	movq	104(%rsp), %r14
	movq	88(%rsp), %r12
	movq	96(%rsp), %r13
	movq	%r12, %rdi
	movq	%r13, %rsi
	movq	%r14, %rdx
	movl	%ebx, %ecx
	movq	%rsp, %r8
	callq	*56(%r12,%rbx,8)
	subq	$8, %rsp
	.cfi_adjust_cfa_offset 8
	movq	%r12, %rdi
	movq	%r13, %rsi
	movq	%r14, %rdx
	movl	%ebx, %ecx
	movq	%r12, %r8
	movq	%r13, %r9
	leaq	8(%rsp), %r10
	pushq	%r10
	.cfi_adjust_cfa_offset 8
	pushq	%rbx
	.cfi_adjust_cfa_offset 8
	pushq	%r14
	.cfi_adjust_cfa_offset 8
	callq	*%rax
	addq	$32, %rsp
	.cfi_adjust_cfa_offset -32
	movq	%rax, %rbx
	movq	8(%r15,%rbp,8), %rax
	movq	8(%rsp), %rdi                   # 8-byte Reload
	callq	*(%rax)
	decl	%eax
	cltq
	movq	24(%rsp), %r14
	movq	32(%rsp), %r13
	movq	40(%rsp), %r15
	movslq	48(%rsp), %r12
	movq	_parameterization_Ptri8@GOTPCREL(%rip), %rcx
	movzbl	(%rbx,%rax), %ebx
	movq	%rcx, 80(%rsp)
	movq	16(%r14,%r12,8), %rax
	movq	i8_typ@GOTPCREL(%rip), %rcx
	movq	%rcx, 72(%rsp)
	leaq	72(%rsp), %r8
	movq	%r14, %rdi
	movq	%r13, %rsi
	movq	%r15, %rdx
	movl	%r12d, %ecx
	callq	*%rax
	leaq	80(%rsp), %r10
	movq	%r14, %rdi
	movq	%r13, %rsi
	movq	%r15, %rdx
	movl	%r12d, %ecx
	movq	%r14, %r8
	movq	%r13, %r9
	pushq	%rbx
	.cfi_adjust_cfa_offset 8
	pushq	%r10
	.cfi_adjust_cfa_offset 8
	pushq	%r12
	.cfi_adjust_cfa_offset 8
	pushq	%r15
	.cfi_adjust_cfa_offset 8
	callq	*%rax
	addq	$32, %rsp
	.cfi_adjust_cfa_offset -32
	movl	48(%rsp), %esi
	movq	32(%rsp), %rcx
	movq	40(%rsp), %rdx
	jmp	.LBB43_3
.LBB43_1:
	movq	nil_typ@GOTPCREL(%rip), %r14
	xorl	%esi, %esi
                                        # implicit-def: $rcx
                                        # implicit-def: $rdx
.LBB43_3:
	movq	64(%rsp), %rax                  # 8-byte Reload
	movq	%rcx, 16(%rax)
	movq	%r14, (%rax)
	movq	%rdx, 24(%rax)
	movl	%esi, 32(%rax)
	addq	$184, %rsp
	.cfi_def_cfa_offset 56
	popq	%rbx
	.cfi_def_cfa_offset 48
	popq	%r12
	.cfi_def_cfa_offset 40
	popq	%r13
	.cfi_def_cfa_offset 32
	popq	%r14
	.cfi_def_cfa_offset 24
	popq	%r15
	.cfi_def_cfa_offset 16
	popq	%rbp
	.cfi_def_cfa_offset 8
	retq
.Lfunc_end43:
	.size	StringIterator_next_, .Lfunc_end43-StringIterator_next_
	.cfi_endproc
                                        # -- End function
	.weak	_size_nil_typ                   # -- Begin function _size_nil_typ
	.p2align	4, 0x90
	.type	_size_nil_typ,@function
_size_nil_typ:                          # @_size_nil_typ
	.cfi_startproc
# %bb.0:
	movl	$1, %edx
	xorl	%eax, %eax
	retq
.Lfunc_end44:
	.size	_size_nil_typ, .Lfunc_end44-_size_nil_typ
	.cfi_endproc
                                        # -- End function
	.weak	_box_nil_typ                    # -- Begin function _box_nil_typ
	.p2align	4, 0x90
	.type	_box_nil_typ,@function
_box_nil_typ:                           # @_box_nil_typ
	.cfi_startproc
# %bb.0:
	movq	%rdi, %rax
	movq	nil_typ@GOTPCREL(%rip), %rcx
	movq	%rcx, (%rdi)
	retq
.Lfunc_end45:
	.size	_box_nil_typ, .Lfunc_end45-_box_nil_typ
	.cfi_endproc
                                        # -- End function
	.weak	_unbox_nil_typ                  # -- Begin function _unbox_nil_typ
	.p2align	4, 0x90
	.type	_unbox_nil_typ,@function
_unbox_nil_typ:                         # @_unbox_nil_typ
	.cfi_startproc
# %bb.0:
	retq
.Lfunc_end46:
	.size	_unbox_nil_typ, .Lfunc_end46-_unbox_nil_typ
	.cfi_endproc
                                        # -- End function
	.weak	_size_i8_typ                    # -- Begin function _size_i8_typ
	.p2align	4, 0x90
	.type	_size_i8_typ,@function
_size_i8_typ:                           # @_size_i8_typ
	.cfi_startproc
# %bb.0:
	movl	$1, %eax
	movl	$1, %edx
	retq
.Lfunc_end47:
	.size	_size_i8_typ, .Lfunc_end47-_size_i8_typ
	.cfi_endproc
                                        # -- End function
	.weak	_box_i8_typ                     # -- Begin function _box_i8_typ
	.p2align	4, 0x90
	.type	_box_i8_typ,@function
_box_i8_typ:                            # @_box_i8_typ
	.cfi_startproc
# %bb.0:
	movq	%rdi, %rax
	movzbl	(%rsi), %ecx
	movq	i8_typ@GOTPCREL(%rip), %rdx
	movq	%rdx, (%rdi)
	movq	%rcx, 16(%rdi)
	movq	$0, 24(%rdi)
	movl	$0, 32(%rdi)
	retq
.Lfunc_end48:
	.size	_box_i8_typ, .Lfunc_end48-_box_i8_typ
	.cfi_endproc
                                        # -- End function
	.weak	_unbox_i8_typ                   # -- Begin function _unbox_i8_typ
	.p2align	4, 0x90
	.type	_unbox_i8_typ,@function
_unbox_i8_typ:                          # @_unbox_i8_typ
	.cfi_startproc
# %bb.0:
	movb	%sil, (%r9)
	retq
.Lfunc_end49:
	.size	_unbox_i8_typ, .Lfunc_end49-_unbox_i8_typ
	.cfi_endproc
                                        # -- End function
	.globl	_size_Character                 # -- Begin function _size_Character
	.p2align	4, 0x90
	.type	_size_Character,@function
_size_Character:                        # @_size_Character
# %bb.0:
	movl	$1, %eax
	movl	$1, %edx
	retq
.Lfunc_end50:
	.size	_size_Character, .Lfunc_end50-_size_Character
                                        # -- End function
	.globl	Character_B_byte_               # -- Begin function Character_B_byte_
	.p2align	4, 0x90
	.type	Character_B_byte_,@function
Character_B_byte_:                      # @Character_B_byte_
# %bb.0:
	movq	96(%rdi), %rax
	retq
.Lfunc_end51:
	.size	Character_B_byte_, .Lfunc_end51-Character_B_byte_
                                        # -- End function
	.globl	Character_B_init_bytePtri8      # -- Begin function Character_B_init_bytePtri8
	.p2align	4, 0x90
	.type	Character_B_init_bytePtri8,@function
Character_B_init_bytePtri8:             # @Character_B_init_bytePtri8
# %bb.0:
	movq	104(%rdi), %rax
	retq
.Lfunc_end52:
	.size	Character_B_init_bytePtri8, .Lfunc_end52-Character_B_init_bytePtri8
                                        # -- End function
	.globl	Character_byte_                 # -- Begin function Character_byte_
	.p2align	4, 0x90
	.type	Character_byte_,@function
Character_byte_:                        # @Character_byte_
	.cfi_startproc
# %bb.0:
	movq	40(%rdi), %rax
	movabsq	$6681222582356018452, %rcx      # imm = 0x5CB8788A3EA60514
	imulq	8(%rdi), %rcx
	movq	%rcx, %rdx
	shrq	$32, %rdx
	xorq	%rcx, %rdx
	andq	16(%rdi), %rdx
	movslq	(%rax,%rdx,4), %rax
	movq	(%rdi,%rax,8), %rax
	movq	%rsi, %rdi
	jmpq	*(%rax)                         # TAILCALL
.Lfunc_end53:
	.size	Character_byte_, .Lfunc_end53-Character_byte_
	.cfi_endproc
                                        # -- End function
	.globl	Character_init_bytePtri8        # -- Begin function Character_init_bytePtri8
	.p2align	4, 0x90
	.type	Character_init_bytePtri8,@function
Character_init_bytePtri8:               # @Character_init_bytePtri8
	.cfi_startproc
# %bb.0:
	movq	%rsi, %rax
	movq	40(%rdi), %rcx
	movabsq	$6681222582356018452, %rdx      # imm = 0x5CB8788A3EA60514
	imulq	8(%rdi), %rdx
	movq	%rdx, %rsi
	shrq	$32, %rsi
	xorq	%rdx, %rsi
	andq	16(%rdi), %rsi
	movslq	(%rcx,%rsi,4), %rcx
	movq	(%rdi,%rcx,8), %rcx
	movq	8(%rcx), %rcx
	movl	32(%rsp), %esi
	movq	%rax, %rdi
	jmpq	*%rcx                           # TAILCALL
.Lfunc_end54:
	.size	Character_init_bytePtri8, .Lfunc_end54-Character_init_bytePtri8
	.cfi_endproc
                                        # -- End function
	.globl	Character_getter_byte           # -- Begin function Character_getter_byte
	.p2align	4, 0x90
	.type	Character_getter_byte,@function
Character_getter_byte:                  # @Character_getter_byte
# %bb.0:
	movzbl	(%rdi), %eax
	retq
.Lfunc_end55:
	.size	Character_getter_byte, .Lfunc_end55-Character_getter_byte
                                        # -- End function
	.globl	Character_setter_byte           # -- Begin function Character_setter_byte
	.p2align	4, 0x90
	.type	Character_setter_byte,@function
Character_setter_byte:                  # @Character_setter_byte
# %bb.0:
	movb	%sil, (%rdi)
	retq
.Lfunc_end56:
	.size	Character_setter_byte, .Lfunc_end56-Character_setter_byte
                                        # -- End function
	.globl	StringIterator_getter_index     # -- Begin function StringIterator_getter_index
	.p2align	4, 0x90
	.type	StringIterator_getter_index,@function
StringIterator_getter_index:            # @StringIterator_getter_index
# %bb.0:
	movl	32(%rdi), %eax
	retq
.Lfunc_end57:
	.size	StringIterator_getter_index, .Lfunc_end57-StringIterator_getter_index
                                        # -- End function
	.globl	StringIterator_setter_index     # -- Begin function StringIterator_setter_index
	.p2align	4, 0x90
	.type	StringIterator_setter_index,@function
StringIterator_setter_index:            # @StringIterator_setter_index
# %bb.0:
	movl	%esi, 32(%rdi)
	retq
.Lfunc_end58:
	.size	StringIterator_setter_index, .Lfunc_end58-StringIterator_setter_index
                                        # -- End function
	.globl	StringIterator_getter_str       # -- Begin function StringIterator_getter_str
	.p2align	4, 0x90
	.type	StringIterator_getter_str,@function
StringIterator_getter_str:              # @StringIterator_getter_str
# %bb.0:
	movq	%rdi, %rax
	movq	(%rsi), %rcx
	movq	8(%rsi), %rdx
	movq	16(%rsi), %rdi
	movl	24(%rsi), %esi
	movl	%esi, 24(%rax)
	movq	%rdi, 16(%rax)
	movq	%rdx, 8(%rax)
	movq	%rcx, (%rax)
	retq
.Lfunc_end59:
	.size	StringIterator_getter_str, .Lfunc_end59-StringIterator_getter_str
                                        # -- End function
	.globl	StringIterator_setter_str       # -- Begin function StringIterator_setter_str
	.p2align	4, 0x90
	.type	StringIterator_setter_str,@function
StringIterator_setter_str:              # @StringIterator_setter_str
# %bb.0:
	movq	%rsi, (%rdi)
	movq	%rdx, 8(%rdi)
	movq	%rcx, 16(%rdi)
	movl	%r8d, 24(%rdi)
	retq
.Lfunc_end60:
	.size	StringIterator_setter_str, .Lfunc_end60-StringIterator_setter_str
                                        # -- End function
	.globl	String_getter_capacity          # -- Begin function String_getter_capacity
	.p2align	4, 0x90
	.type	String_getter_capacity,@function
String_getter_capacity:                 # @String_getter_capacity
# %bb.0:
	movl	12(%rdi), %eax
	retq
.Lfunc_end61:
	.size	String_getter_capacity, .Lfunc_end61-String_getter_capacity
                                        # -- End function
	.globl	String_setter_capacity          # -- Begin function String_setter_capacity
	.p2align	4, 0x90
	.type	String_setter_capacity,@function
String_setter_capacity:                 # @String_setter_capacity
# %bb.0:
	movl	%esi, 12(%rdi)
	retq
.Lfunc_end62:
	.size	String_setter_capacity, .Lfunc_end62-String_setter_capacity
                                        # -- End function
	.globl	String_getter_length            # -- Begin function String_getter_length
	.p2align	4, 0x90
	.type	String_getter_length,@function
String_getter_length:                   # @String_getter_length
# %bb.0:
	movl	8(%rdi), %eax
	retq
.Lfunc_end63:
	.size	String_getter_length, .Lfunc_end63-String_getter_length
                                        # -- End function
	.globl	String_setter_length            # -- Begin function String_setter_length
	.p2align	4, 0x90
	.type	String_setter_length,@function
String_setter_length:                   # @String_setter_length
# %bb.0:
	movl	%esi, 8(%rdi)
	retq
.Lfunc_end64:
	.size	String_setter_length, .Lfunc_end64-String_setter_length
                                        # -- End function
	.globl	String_getter_bytes             # -- Begin function String_getter_bytes
	.p2align	4, 0x90
	.type	String_getter_bytes,@function
String_getter_bytes:                    # @String_getter_bytes
# %bb.0:
	movq	(%rdi), %rax
	retq
.Lfunc_end65:
	.size	String_getter_bytes, .Lfunc_end65-String_getter_bytes
                                        # -- End function
	.globl	String_setter_bytes             # -- Begin function String_setter_bytes
	.p2align	4, 0x90
	.type	String_setter_bytes,@function
String_setter_bytes:                    # @String_setter_bytes
# %bb.0:
	movq	%rsi, (%rdi)
	retq
.Lfunc_end66:
	.size	String_setter_bytes, .Lfunc_end66-String_setter_bytes
                                        # -- End function
	.globl	_size_Exception                 # -- Begin function _size_Exception
	.p2align	4, 0x90
	.type	_size_Exception,@function
_size_Exception:                        # @_size_Exception
# %bb.0:
	movl	$72, %eax
	movl	$8, %edx
	retq
.Lfunc_end67:
	.size	_size_Exception, .Lfunc_end67-_size_Exception
                                        # -- End function
	.globl	Exception_B_init_messageString  # -- Begin function Exception_B_init_messageString
	.p2align	4, 0x90
	.type	Exception_B_init_messageString,@function
Exception_B_init_messageString:         # @Exception_B_init_messageString
# %bb.0:
	movq	136(%rdi), %rax
	retq
.Lfunc_end68:
	.size	Exception_B_init_messageString, .Lfunc_end68-Exception_B_init_messageString
                                        # -- End function
	.globl	Exception_B_init_               # -- Begin function Exception_B_init_
	.p2align	4, 0x90
	.type	Exception_B_init_,@function
Exception_B_init_:                      # @Exception_B_init_
# %bb.0:
	movq	144(%rdi), %rax
	retq
.Lfunc_end69:
	.size	Exception_B_init_, .Lfunc_end69-Exception_B_init_
                                        # -- End function
	.globl	Exception_B_set_info_line_numberPtri32_file_nameString # -- Begin function Exception_B_set_info_line_numberPtri32_file_nameString
	.p2align	4, 0x90
	.type	Exception_B_set_info_line_numberPtri32_file_nameString,@function
Exception_B_set_info_line_numberPtri32_file_nameString: # @Exception_B_set_info_line_numberPtri32_file_nameString
# %bb.0:
	movq	152(%rdi), %rax
	retq
.Lfunc_end70:
	.size	Exception_B_set_info_line_numberPtri32_file_nameString, .Lfunc_end70-Exception_B_set_info_line_numberPtri32_file_nameString
                                        # -- End function
	.globl	Exception_B_report_             # -- Begin function Exception_B_report_
	.p2align	4, 0x90
	.type	Exception_B_report_,@function
Exception_B_report_:                    # @Exception_B_report_
# %bb.0:
	movq	160(%rdi), %rax
	retq
.Lfunc_end71:
	.size	Exception_B_report_, .Lfunc_end71-Exception_B_report_
                                        # -- End function
	.globl	Exception_B_print_message_      # -- Begin function Exception_B_print_message_
	.p2align	4, 0x90
	.type	Exception_B_print_message_,@function
Exception_B_print_message_:             # @Exception_B_print_message_
# %bb.0:
	movq	168(%rdi), %rax
	retq
.Lfunc_end72:
	.size	Exception_B_print_message_, .Lfunc_end72-Exception_B_print_message_
                                        # -- End function
	.globl	Exception_init_messageString    # -- Begin function Exception_init_messageString
	.p2align	4, 0x90
	.type	Exception_init_messageString,@function
Exception_init_messageString:           # @Exception_init_messageString
	.cfi_startproc
# %bb.0:
	pushq	%r15
	.cfi_def_cfa_offset 16
	pushq	%r14
	.cfi_def_cfa_offset 24
	pushq	%r13
	.cfi_def_cfa_offset 32
	pushq	%r12
	.cfi_def_cfa_offset 40
	pushq	%rbx
	.cfi_def_cfa_offset 48
	.cfi_offset %rbx, -48
	.cfi_offset %r12, -40
	.cfi_offset %r13, -32
	.cfi_offset %r14, -24
	.cfi_offset %r15, -16
	movq	%rsi, %rbx
	movq	%rdi, %r14
	movq	80(%rsp), %rdx
	movq	88(%rsp), %rcx
	movq	72(%rsp), %rsi
	movq	40(%rdi), %rax
	movabsq	$9027164862567808692, %rdi      # imm = 0x7D46EE9D523DFEB4
	imulq	8(%r14), %rdi
	movq	%rdi, %r8
	shrq	$32, %r8
	xorq	%rdi, %r8
	andq	16(%r14), %r8
	movslq	(%rax,%r8,4), %r13
	movq	40(%rsi), %rax
	movabsq	$6499063144389013426, %rdi      # imm = 0x5A314F7F0E23EFB2
	imulq	8(%rsi), %rdi
	movq	%rdi, %r8
	shrq	$32, %r8
	xorq	%rdi, %r8
	andq	16(%rsi), %r8
	movl	(%rax,%r8,4), %r8d
	movq	16(%r14,%r13,8), %rax
	movq	%rbx, %rdi
	callq	*8(%rax)
	movq	(%r14,%r13,8), %rax
	movq	%rbx, %rdi
	xorl	%esi, %esi
	callq	*8(%rax)
	movq	%fs:0, %rax
	leaq	current_ptr@TPOFF(%rax), %r15
	movl	$1, %edi
	movq	%r15, %rsi
	callq	bump_malloc_inner@PLT
	movq	%rax, %r12
	movl	$16, %edi
	movq	%r15, %rsi
	callq	bump_malloc_inner@PLT
	movq	String@GOTPCREL(%rip), %rsi
	movq	%r12, (%rax)
	movabsq	$4294967296, %rcx               # imm = 0x100000000
	movq	%rcx, 8(%rax)
	movq	8(%r14,%r13,8), %rcx
	movq	8(%rcx), %rcx
	movq	%rbx, %rdi
	movq	%rax, %rdx
	movl	$9, %r8d
	popq	%rbx
	.cfi_def_cfa_offset 40
	popq	%r12
	.cfi_def_cfa_offset 32
	popq	%r13
	.cfi_def_cfa_offset 24
	popq	%r14
	.cfi_def_cfa_offset 16
	popq	%r15
	.cfi_def_cfa_offset 8
	jmpq	*%rcx                           # TAILCALL
.Lfunc_end73:
	.size	Exception_init_messageString, .Lfunc_end73-Exception_init_messageString
	.cfi_endproc
                                        # -- End function
	.section	.rodata.cst16,"aM",@progbits,16
	.p2align	4, 0x0                          # -- Begin function Exception_init_
.LCPI74_0:
	.byte	60                              # 0x3c
	.byte	78                              # 0x4e
	.byte	111                             # 0x6f
	.byte	110                             # 0x6e
	.byte	101                             # 0x65
	.byte	62                              # 0x3e
	.zero	1
	.zero	1
	.zero	1
	.zero	1
	.zero	1
	.zero	1
	.zero	1
	.zero	1
	.zero	1
	.zero	1
	.text
	.globl	Exception_init_
	.p2align	4, 0x90
	.type	Exception_init_,@function
Exception_init_:                        # @Exception_init_
	.cfi_startproc
# %bb.0:
	pushq	%rbp
	.cfi_def_cfa_offset 16
	pushq	%r15
	.cfi_def_cfa_offset 24
	pushq	%r14
	.cfi_def_cfa_offset 32
	pushq	%r13
	.cfi_def_cfa_offset 40
	pushq	%r12
	.cfi_def_cfa_offset 48
	pushq	%rbx
	.cfi_def_cfa_offset 56
	pushq	%rax
	.cfi_def_cfa_offset 64
	.cfi_offset %rbx, -56
	.cfi_offset %r12, -48
	.cfi_offset %r13, -40
	.cfi_offset %r14, -32
	.cfi_offset %r15, -24
	.cfi_offset %rbp, -16
	movq	%rsi, %rbx
	movq	%rdi, %r14
	movq	40(%rdi), %rax
	movabsq	$9027164862567808692, %rcx      # imm = 0x7D46EE9D523DFEB4
	imulq	8(%rdi), %rcx
	movq	%rcx, %rdx
	shrq	$32, %rdx
	xorq	%rcx, %rdx
	andq	16(%rdi), %rdx
	movslq	(%rax,%rdx,4), %rbp
	movq	(%rdi,%rbp,8), %rax
	movq	%rsi, %rdi
	xorl	%esi, %esi
	callq	*8(%rax)
	movq	%fs:0, %rax
	leaq	current_ptr@TPOFF(%rax), %r15
	movl	$7, %edi
	movq	%r15, %rsi
	callq	bump_malloc_inner@PLT
	movq	%rax, %r12
	movl	.LCPI74_0(%rip), %eax
	movl	%eax, (%r12)
	movw	$15973, 4(%r12)                 # imm = 0x3E65
	movl	$16, %edi
	movq	%r15, %rsi
	callq	bump_malloc_inner@PLT
	movq	String@GOTPCREL(%rip), %r13
	movq	%r12, (%rax)
	movabsq	$30064771078, %rcx              # imm = 0x700000006
	movq	%rcx, 8(%rax)
	movq	16(%r14,%rbp,8), %rcx
	movq	%rbx, %rdi
	movq	%r13, %rsi
	movq	%rax, %rdx
	movl	$9, %r8d
	callq	*8(%rcx)
	movl	$1, %edi
	movq	%r15, %rsi
	callq	bump_malloc_inner@PLT
	movq	%rax, %r12
	movl	$16, %edi
	movq	%r15, %rsi
	callq	bump_malloc_inner@PLT
	movq	%r12, (%rax)
	movabsq	$4294967296, %rcx               # imm = 0x100000000
	movq	%rcx, 8(%rax)
	movq	8(%r14,%rbp,8), %rcx
	movq	8(%rcx), %rcx
	movq	%rbx, %rdi
	movq	%r13, %rsi
	movq	%rax, %rdx
	movl	$9, %r8d
	addq	$8, %rsp
	.cfi_def_cfa_offset 56
	popq	%rbx
	.cfi_def_cfa_offset 48
	popq	%r12
	.cfi_def_cfa_offset 40
	popq	%r13
	.cfi_def_cfa_offset 32
	popq	%r14
	.cfi_def_cfa_offset 24
	popq	%r15
	.cfi_def_cfa_offset 16
	popq	%rbp
	.cfi_def_cfa_offset 8
	jmpq	*%rcx                           # TAILCALL
.Lfunc_end74:
	.size	Exception_init_, .Lfunc_end74-Exception_init_
	.cfi_endproc
                                        # -- End function
	.globl	Exception_set_info_line_numberPtri32_file_nameString # -- Begin function Exception_set_info_line_numberPtri32_file_nameString
	.p2align	4, 0x90
	.type	Exception_set_info_line_numberPtri32_file_nameString,@function
Exception_set_info_line_numberPtri32_file_nameString: # @Exception_set_info_line_numberPtri32_file_nameString
	.cfi_startproc
# %bb.0:
	pushq	%rbp
	.cfi_def_cfa_offset 16
	pushq	%r15
	.cfi_def_cfa_offset 24
	pushq	%r14
	.cfi_def_cfa_offset 32
	pushq	%r13
	.cfi_def_cfa_offset 40
	pushq	%r12
	.cfi_def_cfa_offset 48
	pushq	%rbx
	.cfi_def_cfa_offset 56
	pushq	%rax
	.cfi_def_cfa_offset 64
	.cfi_offset %rbx, -56
	.cfi_offset %r12, -48
	.cfi_offset %r13, -40
	.cfi_offset %r14, -32
	.cfi_offset %r15, -24
	.cfi_offset %rbp, -16
	movq	%rsi, %rbx
	movq	%rdi, %r12
	movq	104(%rsp), %r14
	movq	112(%rsp), %r15
	movq	96(%rsp), %r13
	movl	88(%rsp), %esi
	movq	40(%rdi), %rax
	movabsq	$9027164862567808692, %rcx      # imm = 0x7D46EE9D523DFEB4
	imulq	8(%rdi), %rcx
	movq	%rcx, %rdx
	shrq	$32, %rdx
	xorq	%rcx, %rdx
	andq	16(%rdi), %rdx
	movslq	(%rax,%rdx,4), %rbp
	movq	(%rdi,%rbp,8), %rax
	movq	%rbx, %rdi
	callq	*8(%rax)
	movq	40(%r13), %rax
	movabsq	$6499063144389013426, %rcx      # imm = 0x5A314F7F0E23EFB2
	imulq	8(%r13), %rcx
	movq	%rcx, %rdx
	shrq	$32, %rdx
	xorq	%rcx, %rdx
	andq	16(%r13), %rdx
	movl	(%rax,%rdx,4), %r8d
	movq	8(%r12,%rbp,8), %rax
	movq	8(%rax), %rax
	movq	%rbx, %rdi
	movq	%r13, %rsi
	movq	%r14, %rdx
	movq	%r15, %rcx
	addq	$8, %rsp
	.cfi_def_cfa_offset 56
	popq	%rbx
	.cfi_def_cfa_offset 48
	popq	%r12
	.cfi_def_cfa_offset 40
	popq	%r13
	.cfi_def_cfa_offset 32
	popq	%r14
	.cfi_def_cfa_offset 24
	popq	%r15
	.cfi_def_cfa_offset 16
	popq	%rbp
	.cfi_def_cfa_offset 8
	jmpq	*%rax                           # TAILCALL
.Lfunc_end75:
	.size	Exception_set_info_line_numberPtri32_file_nameString, .Lfunc_end75-Exception_set_info_line_numberPtri32_file_nameString
	.cfi_endproc
                                        # -- End function
	.section	.rodata.cst16,"aM",@progbits,16
	.p2align	4, 0x0                          # -- Begin function Exception_report_
.LCPI76_0:
	.byte	69                              # 0x45
	.byte	120                             # 0x78
	.byte	99                              # 0x63
	.byte	101                             # 0x65
	.byte	112                             # 0x70
	.byte	116                             # 0x74
	.byte	105                             # 0x69
	.byte	111                             # 0x6f
	.byte	110                             # 0x6e
	.byte	32                              # 0x20
	.byte	116                             # 0x74
	.byte	104                             # 0x68
	.byte	114                             # 0x72
	.byte	111                             # 0x6f
	.byte	119                             # 0x77
	.byte	110                             # 0x6e
.LCPI76_1:
	.byte	65                              # 0x41
	.byte	116                             # 0x74
	.byte	32                              # 0x20
	.byte	108                             # 0x6c
	.byte	105                             # 0x69
	.byte	110                             # 0x6e
	.byte	101                             # 0x65
	.zero	1
	.zero	1
	.zero	1
	.zero	1
	.zero	1
	.zero	1
	.zero	1
	.zero	1
	.zero	1
	.text
	.globl	Exception_report_
	.p2align	4, 0x90
	.type	Exception_report_,@function
Exception_report_:                      # @Exception_report_
	.cfi_startproc
# %bb.0:                                # %.lr.ph.i
	pushq	%rbp
	.cfi_def_cfa_offset 16
	pushq	%r15
	.cfi_def_cfa_offset 24
	pushq	%r14
	.cfi_def_cfa_offset 32
	pushq	%r13
	.cfi_def_cfa_offset 40
	pushq	%r12
	.cfi_def_cfa_offset 48
	pushq	%rbx
	.cfi_def_cfa_offset 56
	subq	$72, %rsp
	.cfi_def_cfa_offset 128
	.cfi_offset %rbx, -56
	.cfi_offset %r12, -48
	.cfi_offset %r13, -40
	.cfi_offset %r14, -32
	.cfi_offset %r15, -24
	.cfi_offset %rbp, -16
	movq	%rdx, 32(%rsp)                  # 8-byte Spill
	movq	%rsi, %rbx
	movq	%rsi, 16(%rsp)                  # 8-byte Spill
	movq	%rdi, %r12
	movq	40(%rdi), %rax
	movabsq	$9027164862567808692, %rcx      # imm = 0x7D46EE9D523DFEB4
	imulq	8(%rdi), %rcx
	movq	%rcx, %rdx
	shrq	$32, %rdx
	xorq	%rcx, %rdx
	andq	16(%rdi), %rdx
	movslq	(%rax,%rdx,4), %r15
	movq	%r15, 24(%rsp)                  # 8-byte Spill
	movq	%fs:0, %rax
	leaq	current_ptr@TPOFF(%rax), %r14
	movl	$10, %edi
	movq	%r14, %rsi
	callq	bump_malloc_inner@PLT
	movq	%rax, %rbp
	movabsq	$3255307777713450285, %rax      # imm = 0x2D2D2D2D2D2D2D2D
	movq	%rax, (%rbp)
	movb	$45, 8(%rbp)
	movl	$10, %edi
	movq	%r14, %rsi
	callq	bump_malloc_inner@PLT
	movq	(%rbp), %rcx
	movq	%rcx, (%rax)
	movzbl	8(%rbp), %ecx
	movb	%cl, 8(%rax)
	movb	$0, 9(%rax)
	movq	%rax, %rdi
	callq	puts@PLT
	movl	$27, %edi
	movq	%r14, %rsi
	callq	bump_malloc_inner@PLT
	movq	%rax, %rbp
	movabsq	$7594793476000212512, %rax      # imm = 0x6966206D6F726620
	movq	%rax, 16(%rbp)
	movaps	.LCPI76_0(%rip), %xmm0          # xmm0 = [69,120,99,101,112,116,105,111,110,32,116,104,114,111,119,110]
	movaps	%xmm0, (%rbp)
	movw	$25964, 24(%rbp)                # imm = 0x656C
	movl	$27, %edi
	movq	%r14, %rsi
	callq	bump_malloc_inner@PLT
	movq	(%rbp), %rcx
	movq	8(%rbp), %rdx
	movq	%rcx, (%rax)
	movq	%rdx, 8(%rax)
	movq	16(%rbp), %rcx
	movq	%rcx, 16(%rax)
	movzwl	24(%rbp), %ecx
	movw	%cx, 24(%rax)
	movb	$0, 26(%rax)
	movq	%rax, %rdi
	callq	puts@PLT
	movq	8(%r12,%r15,8), %rax
	leaq	40(%rsp), %rdi
	movq	%rbx, %rsi
	callq	*(%rax)
	movslq	64(%rsp), %rbx
	movq	56(%rsp), %rbp
	movq	40(%rsp), %r15
	movq	48(%rsp), %r13
	leaq	8(%rsp), %r8
	movq	%r15, %rdi
	movq	%r13, %rsi
	movq	%rbp, %rdx
	movl	%ebx, %ecx
	callq	*112(%r15,%rbx,8)
	subq	$8, %rsp
	.cfi_adjust_cfa_offset 8
	movq	%r15, %rdi
	movq	%r13, %rsi
	movq	%rbp, %rdx
	movl	%ebx, %ecx
	movq	%r15, %r8
	movq	%r13, %r9
	leaq	16(%rsp), %r10
	pushq	%r10
	.cfi_adjust_cfa_offset 8
	pushq	%rbx
	.cfi_adjust_cfa_offset 8
	pushq	%rbp
	.cfi_adjust_cfa_offset 8
	callq	*%rax
	addq	$32, %rsp
	.cfi_adjust_cfa_offset -32
	movq	%rax, %rdi
	callq	puts@PLT
	movl	$8, %edi
	movq	%r14, %rsi
	callq	bump_malloc_inner@PLT
	movq	%rax, %rbx
	movl	.LCPI76_1(%rip), %eax
	movl	%eax, (%rbx)
	movb	$101, 6(%rbx)
	movw	$28265, 4(%rbx)                 # imm = 0x6E69
	movl	$8, %edi
	movq	%r14, %rsi
	callq	bump_malloc_inner@PLT
	movl	(%rbx), %ecx
	movl	3(%rbx), %edx
	movl	%ecx, (%rax)
	movl	%edx, 3(%rax)
	movb	$0, 7(%rax)
	movq	%rax, %rdi
	callq	puts@PLT
	movq	24(%rsp), %r13                  # 8-byte Reload
	movq	(%r12,%r13,8), %rax
	movq	16(%rsp), %r15                  # 8-byte Reload
	movq	%r15, %rdi
	callq	*(%rax)
	movq	i32_string@GOTPCREL(%rip), %rdi
	movl	%eax, %esi
	xorl	%eax, %eax
	callq	printf@PLT
	movl	$13, %edi
	movq	%r14, %rsi
	callq	bump_malloc_inner@PLT
	movq	%rax, %rbx
	movabsq	$8315172272968329559, %rax      # imm = 0x73656D2068746957
	movq	%rax, (%rbx)
	movl	$1701273971, 8(%rbx)            # imm = 0x65676173
	movl	$13, %edi
	movq	%r14, %rsi
	callq	bump_malloc_inner@PLT
	movq	(%rbx), %rcx
	movq	%rcx, (%rax)
	movl	8(%rbx), %ecx
	movl	%ecx, 8(%rax)
	movb	$0, 12(%rax)
	movq	%rax, %rdi
	callq	puts@PLT
	movq	%r12, %rdi
	movq	%r15, %rsi
	movq	32(%rsp), %rbx                  # 8-byte Reload
	movq	%rbx, %rdx
	movl	%r13d, %ecx
	leaq	8(%rsp), %rbp
	movq	%rbp, %r8
	callq	*56(%r12,%r13,8)
	subq	$8, %rsp
	.cfi_adjust_cfa_offset 8
	movq	%r12, %rdi
	movq	%r15, %rsi
	movq	%rbx, %rdx
	movl	%r13d, %ecx
	movq	%r12, %r8
	movq	%r15, %r9
	pushq	%rbp
	.cfi_adjust_cfa_offset 8
	pushq	%r13
	.cfi_adjust_cfa_offset 8
	pushq	%rbx
	.cfi_adjust_cfa_offset 8
	callq	*%rax
	addq	$32, %rsp
	.cfi_adjust_cfa_offset -32
	movl	$10, %edi
	movq	%r14, %rsi
	callq	bump_malloc_inner@PLT
	movq	%rax, %rbx
	movabsq	$3255307777713450285, %rax      # imm = 0x2D2D2D2D2D2D2D2D
	movq	%rax, (%rbx)
	movb	$45, 8(%rbx)
	movl	$10, %edi
	movq	%r14, %rsi
	callq	bump_malloc_inner@PLT
	movq	(%rbx), %rcx
	movq	%rcx, (%rax)
	movzbl	8(%rbx), %ecx
	movb	%cl, 8(%rax)
	movb	$0, 9(%rax)
	movq	%rax, %rdi
	callq	puts@PLT
	addq	$72, %rsp
	.cfi_def_cfa_offset 56
	popq	%rbx
	.cfi_def_cfa_offset 48
	popq	%r12
	.cfi_def_cfa_offset 40
	popq	%r13
	.cfi_def_cfa_offset 32
	popq	%r14
	.cfi_def_cfa_offset 24
	popq	%r15
	.cfi_def_cfa_offset 16
	popq	%rbp
	.cfi_def_cfa_offset 8
	retq
.Lfunc_end76:
	.size	Exception_report_, .Lfunc_end76-Exception_report_
	.cfi_endproc
                                        # -- End function
	.globl	Exception_print_message_        # -- Begin function Exception_print_message_
	.p2align	4, 0x90
	.type	Exception_print_message_,@function
Exception_print_message_:               # @Exception_print_message_
	.cfi_startproc
# %bb.0:
	pushq	%r15
	.cfi_def_cfa_offset 16
	pushq	%r14
	.cfi_def_cfa_offset 24
	pushq	%r13
	.cfi_def_cfa_offset 32
	pushq	%r12
	.cfi_def_cfa_offset 40
	pushq	%rbx
	.cfi_def_cfa_offset 48
	subq	$48, %rsp
	.cfi_def_cfa_offset 96
	.cfi_offset %rbx, -48
	.cfi_offset %r12, -40
	.cfi_offset %r13, -32
	.cfi_offset %r14, -24
	.cfi_offset %r15, -16
	movq	40(%rdi), %rax
	movabsq	$9027164862567808692, %rcx      # imm = 0x7D46EE9D523DFEB4
	imulq	8(%rdi), %rcx
	movq	%rcx, %rdx
	shrq	$32, %rdx
	xorq	%rcx, %rdx
	andq	16(%rdi), %rdx
	movslq	(%rax,%rdx,4), %rax
	movq	16(%rdi,%rax,8), %rax
	leaq	16(%rsp), %rdi
	callq	*(%rax)
	movslq	40(%rsp), %rbx
	movq	32(%rsp), %r14
	movq	16(%rsp), %r15
	movq	24(%rsp), %r12
	leaq	8(%rsp), %r13
	movq	%r15, %rdi
	movq	%r12, %rsi
	movq	%r14, %rdx
	movl	%ebx, %ecx
	movq	%r13, %r8
	callq	*112(%r15,%rbx,8)
	subq	$8, %rsp
	.cfi_adjust_cfa_offset 8
	movq	%r15, %rdi
	movq	%r12, %rsi
	movq	%r14, %rdx
	movl	%ebx, %ecx
	movq	%r15, %r8
	movq	%r12, %r9
	pushq	%r13
	.cfi_adjust_cfa_offset 8
	pushq	%rbx
	.cfi_adjust_cfa_offset 8
	pushq	%r14
	.cfi_adjust_cfa_offset 8
	callq	*%rax
	addq	$32, %rsp
	.cfi_adjust_cfa_offset -32
	movq	%rax, %rdi
	callq	puts@PLT
	addq	$48, %rsp
	.cfi_def_cfa_offset 48
	popq	%rbx
	.cfi_def_cfa_offset 40
	popq	%r12
	.cfi_def_cfa_offset 32
	popq	%r13
	.cfi_def_cfa_offset 24
	popq	%r14
	.cfi_def_cfa_offset 16
	popq	%r15
	.cfi_def_cfa_offset 8
	retq
.Lfunc_end77:
	.size	Exception_print_message_, .Lfunc_end77-Exception_print_message_
	.cfi_endproc
                                        # -- End function
	.globl	Exception_getter_message        # -- Begin function Exception_getter_message
	.p2align	4, 0x90
	.type	Exception_getter_message,@function
Exception_getter_message:               # @Exception_getter_message
# %bb.0:
	movq	%rdi, %rax
	movq	40(%rsi), %rcx
	movq	48(%rsi), %rdx
	movq	56(%rsi), %rdi
	movl	64(%rsi), %esi
	movl	%esi, 24(%rax)
	movq	%rdi, 16(%rax)
	movq	%rdx, 8(%rax)
	movq	%rcx, (%rax)
	retq
.Lfunc_end78:
	.size	Exception_getter_message, .Lfunc_end78-Exception_getter_message
                                        # -- End function
	.globl	Exception_setter_message        # -- Begin function Exception_setter_message
	.p2align	4, 0x90
	.type	Exception_setter_message,@function
Exception_setter_message:               # @Exception_setter_message
# %bb.0:
	movq	%rsi, 40(%rdi)
	movq	%rdx, 48(%rdi)
	movq	%rcx, 56(%rdi)
	movl	%r8d, 64(%rdi)
	retq
.Lfunc_end79:
	.size	Exception_setter_message, .Lfunc_end79-Exception_setter_message
                                        # -- End function
	.globl	Exception_getter_file_name      # -- Begin function Exception_getter_file_name
	.p2align	4, 0x90
	.type	Exception_getter_file_name,@function
Exception_getter_file_name:             # @Exception_getter_file_name
# %bb.0:
	movq	%rdi, %rax
	movq	8(%rsi), %rcx
	movq	16(%rsi), %rdx
	movq	24(%rsi), %rdi
	movl	32(%rsi), %esi
	movl	%esi, 24(%rax)
	movq	%rdi, 16(%rax)
	movq	%rdx, 8(%rax)
	movq	%rcx, (%rax)
	retq
.Lfunc_end80:
	.size	Exception_getter_file_name, .Lfunc_end80-Exception_getter_file_name
                                        # -- End function
	.globl	Exception_setter_file_name      # -- Begin function Exception_setter_file_name
	.p2align	4, 0x90
	.type	Exception_setter_file_name,@function
Exception_setter_file_name:             # @Exception_setter_file_name
# %bb.0:
	movq	%rsi, 8(%rdi)
	movq	%rdx, 16(%rdi)
	movq	%rcx, 24(%rdi)
	movl	%r8d, 32(%rdi)
	retq
.Lfunc_end81:
	.size	Exception_setter_file_name, .Lfunc_end81-Exception_setter_file_name
                                        # -- End function
	.globl	Exception_getter_line_number    # -- Begin function Exception_getter_line_number
	.p2align	4, 0x90
	.type	Exception_getter_line_number,@function
Exception_getter_line_number:           # @Exception_getter_line_number
# %bb.0:
	movl	(%rdi), %eax
	retq
.Lfunc_end82:
	.size	Exception_getter_line_number, .Lfunc_end82-Exception_getter_line_number
                                        # -- End function
	.globl	Exception_setter_line_number    # -- Begin function Exception_setter_line_number
	.p2align	4, 0x90
	.type	Exception_setter_line_number,@function
Exception_setter_line_number:           # @Exception_setter_line_number
# %bb.0:
	movl	%esi, (%rdi)
	retq
.Lfunc_end83:
	.size	Exception_setter_line_number, .Lfunc_end83-Exception_setter_line_number
                                        # -- End function
	.globl	_size_IO                        # -- Begin function _size_IO
	.p2align	4, 0x90
	.type	_size_IO,@function
_size_IO:                               # @_size_IO
# %bb.0:
	movl	$1, %edx
	xorl	%eax, %eax
	retq
.Lfunc_end84:
	.size	_size_IO, .Lfunc_end84-_size_IO
                                        # -- End function
	.globl	IO_B__Self_print_xPtrf64__Self_print_xRepresentable__Self_print_xPtri8__Self_print_xString__Self_print_xPtri64__Self_print_xNil__Self_print_xCharacter__Self_print_xPtri1__Self_print_xPtri32 # -- Begin function IO_B__Self_print_xPtrf64__Self_print_xRepresentable__Self_print_xPtri8__Self_print_xString__Self_print_xPtri64__Self_print_xNil__Self_print_xCharacter__Self_print_xPtri1__Self_print_xPtri32
	.p2align	4, 0x90
	.type	IO_B__Self_print_xPtrf64__Self_print_xRepresentable__Self_print_xPtri8__Self_print_xString__Self_print_xPtri64__Self_print_xNil__Self_print_xCharacter__Self_print_xPtri1__Self_print_xPtri32,@function
IO_B__Self_print_xPtrf64__Self_print_xRepresentable__Self_print_xPtri8__Self_print_xString__Self_print_xPtri64__Self_print_xNil__Self_print_xCharacter__Self_print_xPtri1__Self_print_xPtri32: # @IO_B__Self_print_xPtrf64__Self_print_xRepresentable__Self_print_xPtri8__Self_print_xString__Self_print_xPtri64__Self_print_xNil__Self_print_xCharacter__Self_print_xPtri1__Self_print_xPtri32
	.cfi_startproc
# %bb.0:
	pushq	%rbp
	.cfi_def_cfa_offset 16
	pushq	%r15
	.cfi_def_cfa_offset 24
	pushq	%r14
	.cfi_def_cfa_offset 32
	pushq	%r13
	.cfi_def_cfa_offset 40
	pushq	%r12
	.cfi_def_cfa_offset 48
	pushq	%rbx
	.cfi_def_cfa_offset 56
	pushq	%rax
	.cfi_def_cfa_offset 64
	.cfi_offset %rbx, -56
	.cfi_offset %r12, -48
	.cfi_offset %r13, -40
	.cfi_offset %r14, -32
	.cfi_offset %r15, -24
	.cfi_offset %rbp, -16
	movq	(%rdi), %rax
	movq	8(%rax), %rbx
	movq	16(%rax), %r15
	movq	24(%rax), %r13
	movq	32(%rax), %r14
	movq	f64_typ@GOTPCREL(%rip), %rcx
	movabsq	$-757315540097298781, %rdx      # imm = 0xF57D7987599E0EA3
	movq	%r15, %rdi
	movq	%rbx, %rsi
	movq	%r14, %r8
	callq	*%r13
	movl	$1, %ecx
	testb	$1, %al
	jne	.LBB85_8
# %bb.1:
	movq	nil_typ@GOTPCREL(%rip), %rcx
	movabsq	$-5126806859456325683, %rdx     # imm = 0xB8D9EC530611D7CD
	movq	%r15, %rdi
	movq	%rbx, %rsi
	movq	%r14, %r8
	callq	*%r13
	movl	$6, %ecx
	testb	$1, %al
	jne	.LBB85_8
# %bb.2:
	movq	i32_typ@GOTPCREL(%rip), %rcx
	movabsq	$-2253724949814257982, %rdx     # imm = 0xE0B9291950E2D6C2
	movq	%r15, %rdi
	movq	%rbx, %rsi
	movq	%r14, %r8
	callq	*%r13
	movl	$9, %ecx
	testb	$1, %al
	jne	.LBB85_8
# %bb.3:
	movq	i8_typ@GOTPCREL(%rip), %rcx
	movabsq	$2582149688529881115, %rdx      # imm = 0x23D5A375FDB5881B
	movq	%r15, %rdi
	movq	%rbx, %rsi
	movq	%r14, %r8
	callq	*%r13
	movl	$3, %ecx
	testb	$1, %al
	jne	.LBB85_8
# %bb.4:
	movq	String@GOTPCREL(%rip), %rcx
	movabsq	$6499063144389013426, %rdx      # imm = 0x5A314F7F0E23EFB2
	movq	%r15, %rdi
	movq	%rbx, %rsi
	movq	%r14, %r8
	callq	*%r13
	movl	%eax, %ebp
	movq	Character@GOTPCREL(%rip), %rcx
	movabsq	$6681222582356018452, %rdx      # imm = 0x5CB8788A3EA60514
	movq	%r15, %rdi
	movq	%rbx, %rsi
	movq	%r14, %r8
	callq	*%r13
	movl	%eax, %r12d
	movl	%ebp, %eax
	notb	%al
	orb	%r12b, %al
	movl	$4, %ecx
	testb	$1, %al
	je	.LBB85_8
# %bb.5:
	movq	Representable@GOTPCREL(%rip), %rcx
	movabsq	$-7260840641129990118, %rdx     # imm = 0x9B3C4FE80EBA381A
	movq	%r15, %rdi
	movq	%rbx, %rsi
	movq	%r14, %r8
	callq	*%r13
	notb	%al
	orb	%r12b, %bpl
	orb	%al, %bpl
	movl	$2, %ecx
	testb	$1, %bpl
	je	.LBB85_8
# %bb.6:                                # %.critedge
	movq	i64_typ@GOTPCREL(%rip), %rcx
	movabsq	$-7469797244461771922, %rdx     # imm = 0x9855F2FB9BAA136E
	movq	%r15, %rdi
	movq	%rbx, %rsi
	movq	%r14, %r8
	callq	*%r13
	movl	$5, %ecx
	testb	$1, %al
	jne	.LBB85_8
# %bb.7:
	movq	bool_typ@GOTPCREL(%rip), %rcx
	movabsq	$5801531371504802705, %rdx      # imm = 0x50832E0B67D41B91
	movq	%r15, %rdi
	movq	%rbx, %rsi
	movq	%r14, %r8
	callq	*%r13
	movzbl	%al, %ecx
	andl	$1, %ecx
	addl	$7, %ecx
.LBB85_8:                               # %._crit_edge
	movl	%ecx, %eax
	movq	IO@GOTPCREL(%rip), %rcx
	movq	72(%rcx,%rax,8), %rax
	addq	$8, %rsp
	.cfi_def_cfa_offset 56
	popq	%rbx
	.cfi_def_cfa_offset 48
	popq	%r12
	.cfi_def_cfa_offset 40
	popq	%r13
	.cfi_def_cfa_offset 32
	popq	%r14
	.cfi_def_cfa_offset 24
	popq	%r15
	.cfi_def_cfa_offset 16
	popq	%rbp
	.cfi_def_cfa_offset 8
	retq
.Lfunc_end85:
	.size	IO_B__Self_print_xPtrf64__Self_print_xRepresentable__Self_print_xPtri8__Self_print_xString__Self_print_xPtri64__Self_print_xNil__Self_print_xCharacter__Self_print_xPtri1__Self_print_xPtri32, .Lfunc_end85-IO_B__Self_print_xPtrf64__Self_print_xRepresentable__Self_print_xPtri8__Self_print_xString__Self_print_xPtri64__Self_print_xNil__Self_print_xCharacter__Self_print_xPtri1__Self_print_xPtri32
	.cfi_endproc
                                        # -- End function
	.globl	IO__Self_print_xPtrf64          # -- Begin function IO__Self_print_xPtrf64
	.p2align	4, 0x90
	.type	IO__Self_print_xPtrf64,@function
IO__Self_print_xPtrf64:                 # @IO__Self_print_xPtrf64
# %bb.0:
	movq	%rdx, %xmm0
	movq	float_string@GOTPCREL(%rip), %rdi
	movb	$1, %al
	jmp	printf@PLT                      # TAILCALL
.Lfunc_end86:
	.size	IO__Self_print_xPtrf64, .Lfunc_end86-IO__Self_print_xPtrf64
                                        # -- End function
	.globl	IO__Self_print_xRepresentable   # -- Begin function IO__Self_print_xRepresentable
	.p2align	4, 0x90
	.type	IO__Self_print_xRepresentable,@function
IO__Self_print_xRepresentable:          # @IO__Self_print_xRepresentable
	.cfi_startproc
# %bb.0:
	pushq	%r15
	.cfi_def_cfa_offset 16
	pushq	%r14
	.cfi_def_cfa_offset 24
	pushq	%r13
	.cfi_def_cfa_offset 32
	pushq	%r12
	.cfi_def_cfa_offset 40
	pushq	%rbx
	.cfi_def_cfa_offset 48
	subq	$48, %rsp
	.cfi_def_cfa_offset 96
	.cfi_offset %rbx, -48
	.cfi_offset %r12, -40
	.cfi_offset %r13, -32
	.cfi_offset %r14, -24
	.cfi_offset %r15, -16
	movq	%rcx, %r15
	movq	%rdx, %r14
	movq	%rsi, %r12
	movq	40(%rsi), %rax
	movabsq	$-7260840641129990118, %rcx     # imm = 0x9B3C4FE80EBA381A
	imulq	8(%rsi), %rcx
	movq	%rcx, %rdx
	shrq	$32, %rdx
	xorq	%rcx, %rdx
	andq	16(%rsi), %rdx
	movslq	(%rax,%rdx,4), %r13
	leaq	8(%rsp), %rbx
	movq	%rsi, %rdi
	movq	%r14, %rsi
	movq	%r15, %rdx
	movl	%r13d, %ecx
	movq	%rbx, %r8
	callq	*(%r12,%r13,8)
	leaq	16(%rsp), %rdi
	movq	%r12, %rsi
	movq	%r14, %rdx
	movq	%r15, %rcx
	movl	%r13d, %r8d
	movq	%r12, %r9
	pushq	%rbx
	.cfi_adjust_cfa_offset 8
	pushq	%r13
	.cfi_adjust_cfa_offset 8
	pushq	%r15
	.cfi_adjust_cfa_offset 8
	pushq	%r14
	.cfi_adjust_cfa_offset 8
	callq	*%rax
	addq	$32, %rsp
	.cfi_adjust_cfa_offset -32
	movq	32(%rsp), %r14
	movq	16(%rsp), %r15
	movq	24(%rsp), %r12
	movq	40(%r15), %rax
	movabsq	$6499063144389013426, %rcx      # imm = 0x5A314F7F0E23EFB2
	imulq	8(%r15), %rcx
	movq	%rcx, %rdx
	shrq	$32, %rdx
	xorq	%rcx, %rdx
	andq	16(%r15), %rdx
	movslq	(%rax,%rdx,4), %r13
	movq	%r15, %rdi
	movq	%r12, %rsi
	movq	%r14, %rdx
	movl	%r13d, %ecx
	movq	%rbx, %r8
	callq	*112(%r15,%r13,8)
	subq	$8, %rsp
	.cfi_adjust_cfa_offset 8
	movq	%r15, %rdi
	movq	%r12, %rsi
	movq	%r14, %rdx
	movl	%r13d, %ecx
	movq	%r15, %r8
	movq	%r12, %r9
	pushq	%rbx
	.cfi_adjust_cfa_offset 8
	pushq	%r13
	.cfi_adjust_cfa_offset 8
	pushq	%r14
	.cfi_adjust_cfa_offset 8
	callq	*%rax
	addq	$32, %rsp
	.cfi_adjust_cfa_offset -32
	movq	%rax, %rdi
	callq	puts@PLT
	addq	$48, %rsp
	.cfi_def_cfa_offset 48
	popq	%rbx
	.cfi_def_cfa_offset 40
	popq	%r12
	.cfi_def_cfa_offset 32
	popq	%r13
	.cfi_def_cfa_offset 24
	popq	%r14
	.cfi_def_cfa_offset 16
	popq	%r15
	.cfi_def_cfa_offset 8
	retq
.Lfunc_end87:
	.size	IO__Self_print_xRepresentable, .Lfunc_end87-IO__Self_print_xRepresentable
	.cfi_endproc
                                        # -- End function
	.globl	IO__Self_print_xPtri8           # -- Begin function IO__Self_print_xPtri8
	.p2align	4, 0x90
	.type	IO__Self_print_xPtri8,@function
IO__Self_print_xPtri8:                  # @IO__Self_print_xPtri8
# %bb.0:
	movsbl	%dl, %esi
	movq	i32_string@GOTPCREL(%rip), %rdi
	xorl	%eax, %eax
	jmp	printf@PLT                      # TAILCALL
.Lfunc_end88:
	.size	IO__Self_print_xPtri8, .Lfunc_end88-IO__Self_print_xPtri8
                                        # -- End function
	.globl	IO__Self_print_xString          # -- Begin function IO__Self_print_xString
	.p2align	4, 0x90
	.type	IO__Self_print_xString,@function
IO__Self_print_xString:                 # @IO__Self_print_xString
	.cfi_startproc
# %bb.0:
	pushq	%r15
	.cfi_def_cfa_offset 16
	pushq	%r14
	.cfi_def_cfa_offset 24
	pushq	%r13
	.cfi_def_cfa_offset 32
	pushq	%r12
	.cfi_def_cfa_offset 40
	pushq	%rbx
	.cfi_def_cfa_offset 48
	subq	$16, %rsp
	.cfi_def_cfa_offset 64
	.cfi_offset %rbx, -48
	.cfi_offset %r12, -40
	.cfi_offset %r13, -32
	.cfi_offset %r14, -24
	.cfi_offset %r15, -16
	movq	%rcx, %rbx
	movq	%rdx, %r14
	movq	%rsi, %r15
	movq	40(%rsi), %rax
	movabsq	$6499063144389013426, %rcx      # imm = 0x5A314F7F0E23EFB2
	imulq	8(%rsi), %rcx
	movq	%rcx, %rdx
	shrq	$32, %rdx
	xorq	%rcx, %rdx
	andq	16(%rsi), %rdx
	movslq	(%rax,%rdx,4), %r12
	leaq	8(%rsp), %r13
	movq	%rsi, %rdi
	movq	%r14, %rsi
	movq	%rbx, %rdx
	movl	%r12d, %ecx
	movq	%r13, %r8
	callq	*112(%r15,%r12,8)
	subq	$8, %rsp
	.cfi_adjust_cfa_offset 8
	movq	%r15, %rdi
	movq	%r14, %rsi
	movq	%rbx, %rdx
	movl	%r12d, %ecx
	movq	%r15, %r8
	movq	%r14, %r9
	pushq	%r13
	.cfi_adjust_cfa_offset 8
	pushq	%r12
	.cfi_adjust_cfa_offset 8
	pushq	%rbx
	.cfi_adjust_cfa_offset 8
	callq	*%rax
	addq	$32, %rsp
	.cfi_adjust_cfa_offset -32
	movq	%rax, %rdi
	callq	puts@PLT
	addq	$16, %rsp
	.cfi_def_cfa_offset 48
	popq	%rbx
	.cfi_def_cfa_offset 40
	popq	%r12
	.cfi_def_cfa_offset 32
	popq	%r13
	.cfi_def_cfa_offset 24
	popq	%r14
	.cfi_def_cfa_offset 16
	popq	%r15
	.cfi_def_cfa_offset 8
	retq
.Lfunc_end89:
	.size	IO__Self_print_xString, .Lfunc_end89-IO__Self_print_xString
	.cfi_endproc
                                        # -- End function
	.globl	IO__Self_print_xPtri64          # -- Begin function IO__Self_print_xPtri64
	.p2align	4, 0x90
	.type	IO__Self_print_xPtri64,@function
IO__Self_print_xPtri64:                 # @IO__Self_print_xPtri64
# %bb.0:
	movq	i64_string@GOTPCREL(%rip), %rdi
	movq	%rdx, %rsi
	xorl	%eax, %eax
	jmp	printf@PLT                      # TAILCALL
.Lfunc_end90:
	.size	IO__Self_print_xPtri64, .Lfunc_end90-IO__Self_print_xPtri64
                                        # -- End function
	.globl	IO__Self_print_xNil             # -- Begin function IO__Self_print_xNil
	.p2align	4, 0x90
	.type	IO__Self_print_xNil,@function
IO__Self_print_xNil:                    # @IO__Self_print_xNil
# %bb.0:                                # %.lr.ph.i
	pushq	%r14
	pushq	%rbx
	pushq	%rax
	movq	%fs:0, %rax
	leaq	current_ptr@TPOFF(%rax), %rbx
	movl	$4, %edi
	movq	%rbx, %rsi
	callq	bump_malloc_inner@PLT
	movq	%rax, %r14
	movb	$108, 2(%rax)
	movw	$26990, (%rax)                  # imm = 0x696E
	movl	$4, %edi
	movq	%rbx, %rsi
	callq	bump_malloc_inner@PLT
	movzwl	(%r14), %ecx
	movw	%cx, (%rax)
	movzbl	2(%r14), %ecx
	movb	%cl, 2(%rax)
	movb	$0, 3(%rax)
	movq	%rax, %rdi
	addq	$8, %rsp
	popq	%rbx
	popq	%r14
	jmp	puts@PLT                        # TAILCALL
.Lfunc_end91:
	.size	IO__Self_print_xNil, .Lfunc_end91-IO__Self_print_xNil
                                        # -- End function
	.globl	IO__Self_print_xCharacter       # -- Begin function IO__Self_print_xCharacter
	.p2align	4, 0x90
	.type	IO__Self_print_xCharacter,@function
IO__Self_print_xCharacter:              # @IO__Self_print_xCharacter
	.cfi_startproc
# %bb.0:
	pushq	%rbp
	.cfi_def_cfa_offset 16
	pushq	%r15
	.cfi_def_cfa_offset 24
	pushq	%r14
	.cfi_def_cfa_offset 32
	pushq	%r13
	.cfi_def_cfa_offset 40
	pushq	%r12
	.cfi_def_cfa_offset 48
	pushq	%rbx
	.cfi_def_cfa_offset 56
	pushq	%rax
	.cfi_def_cfa_offset 64
	.cfi_offset %rbx, -56
	.cfi_offset %r12, -48
	.cfi_offset %r13, -40
	.cfi_offset %r14, -32
	.cfi_offset %r15, -24
	.cfi_offset %rbp, -16
	movq	%rcx, %rbx
	movq	%rdx, %r14
	movq	%rsi, %r15
	movq	40(%rsi), %rax
	movabsq	$6681222582356018452, %rcx      # imm = 0x5CB8788A3EA60514
	imulq	8(%rsi), %rcx
	movq	%rcx, %rdx
	shrq	$32, %rdx
	xorq	%rcx, %rdx
	andq	16(%rsi), %rdx
	movslq	(%rax,%rdx,4), %r13
	movq	%fs:0, %rax
	leaq	current_ptr@TPOFF(%rax), %rsi
	movl	$2, %edi
	callq	bump_malloc_inner@PLT
	movq	%rax, %r12
	movq	%rsp, %rbp
	movq	%r15, %rdi
	movq	%r14, %rsi
	movq	%rbx, %rdx
	movl	%r13d, %ecx
	movq	%rbp, %r8
	callq	*8(%r15,%r13,8)
	subq	$8, %rsp
	.cfi_adjust_cfa_offset 8
	movq	%r15, %rdi
	movq	%r14, %rsi
	movq	%rbx, %rdx
	movl	%r13d, %ecx
	movq	%r15, %r8
	movq	%r14, %r9
	pushq	%rbp
	.cfi_adjust_cfa_offset 8
	pushq	%r13
	.cfi_adjust_cfa_offset 8
	pushq	%rbx
	.cfi_adjust_cfa_offset 8
	callq	*%rax
	addq	$32, %rsp
	.cfi_adjust_cfa_offset -32
	movb	%al, (%r12)
	movb	$0, 1(%r12)
	movq	%r12, %rdi
	callq	puts@PLT
	addq	$8, %rsp
	.cfi_def_cfa_offset 56
	popq	%rbx
	.cfi_def_cfa_offset 48
	popq	%r12
	.cfi_def_cfa_offset 40
	popq	%r13
	.cfi_def_cfa_offset 32
	popq	%r14
	.cfi_def_cfa_offset 24
	popq	%r15
	.cfi_def_cfa_offset 16
	popq	%rbp
	.cfi_def_cfa_offset 8
	retq
.Lfunc_end92:
	.size	IO__Self_print_xCharacter, .Lfunc_end92-IO__Self_print_xCharacter
	.cfi_endproc
                                        # -- End function
	.globl	IO__Self_print_xPtri1           # -- Begin function IO__Self_print_xPtri1
	.p2align	4, 0x90
	.type	IO__Self_print_xPtri1,@function
IO__Self_print_xPtri1:                  # @IO__Self_print_xPtri1
# %bb.0:
	pushq	%r15
	pushq	%r14
	pushq	%rbx
	testb	$1, %dl
	je	.LBB93_2
# %bb.1:
	movq	%fs:0, %rax
	leaq	current_ptr@TPOFF(%rax), %rsi
	movl	$5, %edi
	callq	bump_malloc_inner@PLT
	movq	%rax, %rbx
	movl	$1702195828, (%rax)             # imm = 0x65757274
	movl	$4, %r15d
	jmp	.LBB93_3
.LBB93_2:
	movq	%fs:0, %rax
	leaq	current_ptr@TPOFF(%rax), %rsi
	movl	$6, %edi
	callq	bump_malloc_inner@PLT
	movq	%rax, %rbx
	movb	$101, 4(%rax)
	movl	$1936482662, (%rax)             # imm = 0x736C6166
	movl	$5, %r15d
.LBB93_3:                               # %.lr.ph.i
	leal	1(%r15), %edi
	movq	%fs:0, %rax
	leaq	current_ptr@TPOFF(%rax), %rsi
	callq	bump_malloc_inner@PLT
	movq	%rax, %r14
	movl	%r15d, %r15d
	movq	%rax, %rdi
	movq	%rbx, %rsi
	movq	%r15, %rdx
	callq	memcpy@PLT
	movb	$0, (%r14,%r15)
	movq	%r14, %rdi
	popq	%rbx
	popq	%r14
	popq	%r15
	jmp	puts@PLT                        # TAILCALL
.Lfunc_end93:
	.size	IO__Self_print_xPtri1, .Lfunc_end93-IO__Self_print_xPtri1
                                        # -- End function
	.globl	IO__Self_print_xPtri32          # -- Begin function IO__Self_print_xPtri32
	.p2align	4, 0x90
	.type	IO__Self_print_xPtri32,@function
IO__Self_print_xPtri32:                 # @IO__Self_print_xPtri32
# %bb.0:
	movq	i32_string@GOTPCREL(%rip), %rdi
	movl	%edx, %esi
	xorl	%eax, %eax
	jmp	printf@PLT                      # TAILCALL
.Lfunc_end94:
	.size	IO__Self_print_xPtri32, .Lfunc_end94-IO__Self_print_xPtri32
                                        # -- End function
	.weak	_size_bool_typ                  # -- Begin function _size_bool_typ
	.p2align	4, 0x90
	.type	_size_bool_typ,@function
_size_bool_typ:                         # @_size_bool_typ
	.cfi_startproc
# %bb.0:
	movl	$1, %eax
	movl	$1, %edx
	retq
.Lfunc_end95:
	.size	_size_bool_typ, .Lfunc_end95-_size_bool_typ
	.cfi_endproc
                                        # -- End function
	.weak	_box_bool_typ                   # -- Begin function _box_bool_typ
	.p2align	4, 0x90
	.type	_box_bool_typ,@function
_box_bool_typ:                          # @_box_bool_typ
	.cfi_startproc
# %bb.0:
	movq	%rdi, %rax
	movzbl	(%rsi), %ecx
	movq	bool_typ@GOTPCREL(%rip), %rdx
	movq	%rdx, (%rdi)
	movq	%rcx, 16(%rdi)
	movq	$0, 24(%rdi)
	movl	$0, 32(%rdi)
	retq
.Lfunc_end96:
	.size	_box_bool_typ, .Lfunc_end96-_box_bool_typ
	.cfi_endproc
                                        # -- End function
	.weak	_unbox_bool_typ                 # -- Begin function _unbox_bool_typ
	.p2align	4, 0x90
	.type	_unbox_bool_typ,@function
_unbox_bool_typ:                        # @_unbox_bool_typ
	.cfi_startproc
# %bb.0:
	movb	%sil, (%r9)
	retq
.Lfunc_end97:
	.size	_unbox_bool_typ, .Lfunc_end97-_unbox_bool_typ
	.cfi_endproc
                                        # -- End function
	.weak	_size_i64_typ                   # -- Begin function _size_i64_typ
	.p2align	4, 0x90
	.type	_size_i64_typ,@function
_size_i64_typ:                          # @_size_i64_typ
	.cfi_startproc
# %bb.0:
	movl	$8, %eax
	movl	$4, %edx
	retq
.Lfunc_end98:
	.size	_size_i64_typ, .Lfunc_end98-_size_i64_typ
	.cfi_endproc
                                        # -- End function
	.weak	_box_i64_typ                    # -- Begin function _box_i64_typ
	.p2align	4, 0x90
	.type	_box_i64_typ,@function
_box_i64_typ:                           # @_box_i64_typ
	.cfi_startproc
# %bb.0:
	movq	%rdi, %rax
	movq	(%rsi), %rcx
	movq	i64_typ@GOTPCREL(%rip), %rdx
	movq	%rcx, 16(%rdi)
	movq	%rdx, (%rdi)
	movq	$0, 24(%rdi)
	movl	$0, 32(%rdi)
	retq
.Lfunc_end99:
	.size	_box_i64_typ, .Lfunc_end99-_box_i64_typ
	.cfi_endproc
                                        # -- End function
	.weak	_unbox_i64_typ                  # -- Begin function _unbox_i64_typ
	.p2align	4, 0x90
	.type	_unbox_i64_typ,@function
_unbox_i64_typ:                         # @_unbox_i64_typ
	.cfi_startproc
# %bb.0:
	movq	%rsi, (%r9)
	retq
.Lfunc_end100:
	.size	_unbox_i64_typ, .Lfunc_end100-_unbox_i64_typ
	.cfi_endproc
                                        # -- End function
	.weak	_size_f64_typ                   # -- Begin function _size_f64_typ
	.p2align	4, 0x90
	.type	_size_f64_typ,@function
_size_f64_typ:                          # @_size_f64_typ
	.cfi_startproc
# %bb.0:
	movl	$8, %eax
	movl	$8, %edx
	retq
.Lfunc_end101:
	.size	_size_f64_typ, .Lfunc_end101-_size_f64_typ
	.cfi_endproc
                                        # -- End function
	.weak	_box_f64_typ                    # -- Begin function _box_f64_typ
	.p2align	4, 0x90
	.type	_box_f64_typ,@function
_box_f64_typ:                           # @_box_f64_typ
	.cfi_startproc
# %bb.0:
	movq	%rdi, %rax
	movq	(%rsi), %rcx
	movq	f64_typ@GOTPCREL(%rip), %rdx
	movq	%rcx, 16(%rdi)
	movq	%rdx, (%rdi)
	movq	$0, 24(%rdi)
	movl	$0, 32(%rdi)
	retq
.Lfunc_end102:
	.size	_box_f64_typ, .Lfunc_end102-_box_f64_typ
	.cfi_endproc
                                        # -- End function
	.weak	_unbox_f64_typ                  # -- Begin function _unbox_f64_typ
	.p2align	4, 0x90
	.type	_unbox_f64_typ,@function
_unbox_f64_typ:                         # @_unbox_f64_typ
	.cfi_startproc
# %bb.0:
	movq	%rsi, (%r9)
	retq
.Lfunc_end103:
	.size	_unbox_f64_typ, .Lfunc_end103-_unbox_f64_typ
	.cfi_endproc
                                        # -- End function
	.globl	_size_Blocking                  # -- Begin function _size_Blocking
	.p2align	4, 0x90
	.type	_size_Blocking,@function
_size_Blocking:                         # @_size_Blocking
# %bb.0:
	movl	$1, %edx
	xorl	%eax, %eax
	retq
.Lfunc_end104:
	.size	_size_Blocking, .Lfunc_end104-_size_Blocking
                                        # -- End function
	.globl	Blocking_B_init_                # -- Begin function Blocking_B_init_
	.p2align	4, 0x90
	.type	Blocking_B_init_,@function
Blocking_B_init_:                       # @Blocking_B_init_
# %bb.0:
	movq	80(%rdi), %rax
	retq
.Lfunc_end105:
	.size	Blocking_B_init_, .Lfunc_end105-Blocking_B_init_
                                        # -- End function
	.globl	Blocking_init_                  # -- Begin function Blocking_init_
	.p2align	4, 0x90
	.type	Blocking_init_,@function
Blocking_init_:                         # @Blocking_init_
# %bb.0:
	retq
.Lfunc_end106:
	.size	Blocking_init_, .Lfunc_end106-Blocking_init_
                                        # -- End function
	.globl	_size_Channel                   # -- Begin function _size_Channel
	.p2align	4, 0x90
	.type	_size_Channel,@function
_size_Channel:                          # @_size_Channel
# %bb.0:
	movl	$16, %eax
	movl	$8, %edx
	retq
.Lfunc_end107:
	.size	_size_Channel, .Lfunc_end107-_size_Channel
                                        # -- End function
	.globl	Channel_B_init_                 # -- Begin function Channel_B_init_
	.p2align	4, 0x90
	.type	Channel_B_init_,@function
Channel_B_init_:                        # @Channel_B_init_
# %bb.0:
	movq	104(%rdi), %rax
	retq
.Lfunc_end108:
	.size	Channel_B_init_, .Lfunc_end108-Channel_B_init_
                                        # -- End function
	.globl	Channel_B_get_                  # -- Begin function Channel_B_get_
	.p2align	4, 0x90
	.type	Channel_B_get_,@function
Channel_B_get_:                         # @Channel_B_get_
# %bb.0:
	movq	112(%rdi), %rax
	retq
.Lfunc_end109:
	.size	Channel_B_get_, .Lfunc_end109-Channel_B_get_
                                        # -- End function
	.globl	Channel_B_put_new_valuePtri32   # -- Begin function Channel_B_put_new_valuePtri32
	.p2align	4, 0x90
	.type	Channel_B_put_new_valuePtri32,@function
Channel_B_put_new_valuePtri32:          # @Channel_B_put_new_valuePtri32
# %bb.0:
	movq	120(%rdi), %rax
	retq
.Lfunc_end110:
	.size	Channel_B_put_new_valuePtri32, .Lfunc_end110-Channel_B_put_new_valuePtri32
                                        # -- End function
	.globl	Channel_init_                   # -- Begin function Channel_init_
	.p2align	4, 0x90
	.type	Channel_init_,@function
Channel_init_:                          # @Channel_init_
	.cfi_startproc
# %bb.0:
	movq	%rsi, %rax
	movq	40(%rdi), %rcx
	movabsq	$-3668118116639750450, %rdx     # imm = 0xCD183A01E78346CE
	imulq	8(%rdi), %rdx
	movq	%rdx, %rsi
	shrq	$32, %rsi
	xorq	%rdx, %rsi
	andq	16(%rdi), %rsi
	movslq	(%rcx,%rsi,4), %rcx
	movq	(%rdi,%rcx,8), %rcx
	movq	8(%rcx), %rcx
	movq	nil_typ@GOTPCREL(%rip), %rsi
	movq	%rax, %rdi
	jmpq	*%rcx                           # TAILCALL
.Lfunc_end111:
	.size	Channel_init_, .Lfunc_end111-Channel_init_
	.cfi_endproc
                                        # -- End function
	.globl	Channel_get_                    # -- Begin function Channel_get_
	.p2align	4, 0x90
	.type	Channel_get_,@function
Channel_get_:                           # @Channel_get_
	.cfi_startproc
# %bb.0:
	pushq	%rbp
	.cfi_def_cfa_offset 16
	pushq	%r15
	.cfi_def_cfa_offset 24
	pushq	%r14
	.cfi_def_cfa_offset 32
	pushq	%r13
	.cfi_def_cfa_offset 40
	pushq	%r12
	.cfi_def_cfa_offset 48
	pushq	%rbx
	.cfi_def_cfa_offset 56
	subq	$56, %rsp
	.cfi_def_cfa_offset 112
	.cfi_offset %rbx, -56
	.cfi_offset %r12, -48
	.cfi_offset %r13, -40
	.cfi_offset %r14, -32
	.cfi_offset %r15, -24
	.cfi_offset %rbp, -16
	movq	%rsi, %r14
	movq	%rdi, %rbp
	movq	40(%rdi), %rax
	movabsq	$-3668118116639750450, %rcx     # imm = 0xCD183A01E78346CE
	imulq	8(%rdi), %rcx
	movq	%rcx, %rdx
	shrq	$32, %rdx
	xorq	%rcx, %rdx
	andq	16(%rdi), %rdx
	movslq	(%rax,%rdx,4), %r12
	movq	(%rdi,%r12,8), %rax
	movq	%rsi, %rdi
	callq	*(%rax)
	cmpq	nil_typ@GOTPCREL(%rip), %rax
	setne	%cl
	testq	%rax, %rax
	setne	%al
	testb	%al, %cl
	jne	.LBB112_3
# %bb.1:                                # %.lr.ph
	movq	%r14, 16(%rsp)                  # 8-byte Spill
	movq	%r12, 8(%rsp)                   # 8-byte Spill
	.p2align	4, 0x90
.LBB112_2:                              # =>This Inner Loop Header: Depth=1
	movq	%fs:0, %r13
	leaq	current_ptr@TPOFF(%r13), %rsi
	xorl	%edi, %edi
	callq	bump_malloc_inner@PLT
	movq	Blocking@GOTPCREL(%rip), %rdx
	movq	%rdx, 24(%rsp)
	movq	%rax, 32(%rsp)
	movl	$9, 48(%rsp)
	movq	40(%rsp), %rcx
	movq	current_coroutine@GOTTPOFF(%rip), %rsi
	movq	(%r13,%rsi), %r12
	movq	%rax, 64(%r12)
	movq	%rcx, 72(%r12)
	movq	%rdx, 48(%r12)
	movl	$9, 80(%r12)
	addq	$8, %r12
	addq	into_caller_buf@GOTTPOFF(%rip), %r13
	callq	context_switch@PLT
	movq	8(%rsp), %r12                   # 8-byte Reload
	movq	16(%rsp), %r14                  # 8-byte Reload
	movq	(%rbp,%r12,8), %rax
	movq	%r14, %rdi
	callq	*(%rax)
	cmpq	nil_typ@GOTPCREL(%rip), %rax
	sete	%cl
	testq	%rax, %rax
	sete	%al
	orb	%cl, %al
	jne	.LBB112_2
.LBB112_3:
	movl	%edx, %ebx
	movq	(%rbp,%r12,8), %rax
	movq	nil_typ@GOTPCREL(%rip), %rsi
	movq	%r14, %rdi
	callq	*8(%rax)
	movl	%ebx, %eax
	addq	$56, %rsp
	.cfi_def_cfa_offset 56
	popq	%rbx
	.cfi_def_cfa_offset 48
	popq	%r12
	.cfi_def_cfa_offset 40
	popq	%r13
	.cfi_def_cfa_offset 32
	popq	%r14
	.cfi_def_cfa_offset 24
	popq	%r15
	.cfi_def_cfa_offset 16
	popq	%rbp
	.cfi_def_cfa_offset 8
	retq
.Lfunc_end112:
	.size	Channel_get_, .Lfunc_end112-Channel_get_
	.cfi_endproc
                                        # -- End function
	.globl	Channel_put_new_valuePtri32     # -- Begin function Channel_put_new_valuePtri32
	.p2align	4, 0x90
	.type	Channel_put_new_valuePtri32,@function
Channel_put_new_valuePtri32:            # @Channel_put_new_valuePtri32
	.cfi_startproc
# %bb.0:
	pushq	%rbp
	.cfi_def_cfa_offset 16
	pushq	%r15
	.cfi_def_cfa_offset 24
	pushq	%r14
	.cfi_def_cfa_offset 32
	pushq	%r13
	.cfi_def_cfa_offset 40
	pushq	%r12
	.cfi_def_cfa_offset 48
	pushq	%rbx
	.cfi_def_cfa_offset 56
	subq	$72, %rsp
	.cfi_def_cfa_offset 128
	.cfi_offset %rbx, -56
	.cfi_offset %r12, -48
	.cfi_offset %r13, -40
	.cfi_offset %r14, -32
	.cfi_offset %r15, -24
	.cfi_offset %rbp, -16
	movl	152(%rsp), %eax
	movl	%eax, 12(%rsp)                  # 4-byte Spill
	movq	40(%rdi), %rax
	movabsq	$-3668118116639750450, %rcx     # imm = 0xCD183A01E78346CE
	imulq	8(%rdi), %rcx
	movq	%rcx, %rdx
	shrq	$32, %rdx
	xorq	%rcx, %rdx
	andq	16(%rdi), %rdx
	movslq	(%rax,%rdx,4), %rax
	movq	%rdi, 24(%rsp)                  # 8-byte Spill
	movq	%rax, 16(%rsp)                  # 8-byte Spill
	movq	(%rdi,%rax,8), %rax
	movq	%rsi, 32(%rsp)                  # 8-byte Spill
	movq	%rsi, %rdi
	callq	*(%rax)
	cmpq	nil_typ@GOTPCREL(%rip), %rax
	sete	%cl
	testq	%rax, %rax
	sete	%al
	orb	%cl, %al
	jne	.LBB113_4
# %bb.1:                                # %._crit_edge.lr.ph
	movq	Blocking@GOTPCREL(%rip), %rbp
	.p2align	4, 0x90
.LBB113_2:                              # %._crit_edge
                                        # =>This Inner Loop Header: Depth=1
	movq	%fs:0, %r13
	leaq	current_ptr@TPOFF(%r13), %rsi
	xorl	%edi, %edi
	callq	bump_malloc_inner@PLT
	movq	%rbp, 40(%rsp)
	movq	%rax, 48(%rsp)
	movl	$9, 64(%rsp)
	movq	56(%rsp), %rcx
	movq	current_coroutine@GOTTPOFF(%rip), %rdx
	movq	(%r13,%rdx), %r12
	movq	%rax, 64(%r12)
	movq	%rcx, 72(%r12)
	movq	%rbp, 48(%r12)
	movl	$9, 80(%r12)
	addq	$8, %r12
	addq	into_caller_buf@GOTTPOFF(%rip), %r13
	callq	context_switch@PLT
	movq	24(%rsp), %rax                  # 8-byte Reload
	movq	16(%rsp), %rcx                  # 8-byte Reload
	movq	(%rax,%rcx,8), %rax
	movq	32(%rsp), %rdi                  # 8-byte Reload
	callq	*(%rax)
	cmpq	nil_typ@GOTPCREL(%rip), %rax
	je	.LBB113_4
# %bb.3:                                # %._crit_edge
                                        #   in Loop: Header=BB113_2 Depth=1
	testq	%rax, %rax
	jne	.LBB113_2
.LBB113_4:                              # %.critedge
	movq	24(%rsp), %rax                  # 8-byte Reload
	movq	16(%rsp), %rcx                  # 8-byte Reload
	movq	(%rax,%rcx,8), %rax
	movq	8(%rax), %rax
	movq	i32_typ@GOTPCREL(%rip), %rsi
	movq	32(%rsp), %rdi                  # 8-byte Reload
	movl	12(%rsp), %edx                  # 4-byte Reload
	addq	$72, %rsp
	.cfi_def_cfa_offset 56
	popq	%rbx
	.cfi_def_cfa_offset 48
	popq	%r12
	.cfi_def_cfa_offset 40
	popq	%r13
	.cfi_def_cfa_offset 32
	popq	%r14
	.cfi_def_cfa_offset 24
	popq	%r15
	.cfi_def_cfa_offset 16
	popq	%rbp
	.cfi_def_cfa_offset 8
	jmpq	*%rax                           # TAILCALL
.Lfunc_end113:
	.size	Channel_put_new_valuePtri32, .Lfunc_end113-Channel_put_new_valuePtri32
	.cfi_endproc
                                        # -- End function
	.globl	Channel_getter_value            # -- Begin function Channel_getter_value
	.p2align	4, 0x90
	.type	Channel_getter_value,@function
Channel_getter_value:                   # @Channel_getter_value
# %bb.0:
	movq	(%rdi), %rax
	movl	8(%rdi), %edx
	retq
.Lfunc_end114:
	.size	Channel_getter_value, .Lfunc_end114-Channel_getter_value
                                        # -- End function
	.globl	Channel_setter_value            # -- Begin function Channel_setter_value
	.p2align	4, 0x90
	.type	Channel_setter_value,@function
Channel_setter_value:                   # @Channel_setter_value
# %bb.0:
	movq	%rsi, (%rdi)
	movl	%edx, 8(%rdi)
	retq
.Lfunc_end115:
	.size	Channel_setter_value, .Lfunc_end115-Channel_setter_value
                                        # -- End function
	.globl	_size_IntIterator               # -- Begin function _size_IntIterator
	.p2align	4, 0x90
	.type	_size_IntIterator,@function
_size_IntIterator:                      # @_size_IntIterator
# %bb.0:
	movl	$1, %edx
	xorl	%eax, %eax
	retq
.Lfunc_end116:
	.size	_size_IntIterator, .Lfunc_end116-_size_IntIterator
                                        # -- End function
	.globl	_size_IntIterable               # -- Begin function _size_IntIterable
	.p2align	4, 0x90
	.type	_size_IntIterable,@function
_size_IntIterable:                      # @_size_IntIterable
# %bb.0:
	movl	$1, %edx
	xorl	%eax, %eax
	retq
.Lfunc_end117:
	.size	_size_IntIterable, .Lfunc_end117-_size_IntIterable
                                        # -- End function
	.globl	_size_MapIterable               # -- Begin function _size_MapIterable
	.p2align	4, 0x90
	.type	_size_MapIterable,@function
_size_MapIterable:                      # @_size_MapIterable
# %bb.0:
	movl	$40, %eax
	movl	$8, %edx
	retq
.Lfunc_end118:
	.size	_size_MapIterable, .Lfunc_end118-_size_MapIterable
                                        # -- End function
	.globl	MapIterable_B_init_iterableIntIterable_fFunctionPtri32_to_Ptri32 # -- Begin function MapIterable_B_init_iterableIntIterable_fFunctionPtri32_to_Ptri32
	.p2align	4, 0x90
	.type	MapIterable_B_init_iterableIntIterable_fFunctionPtri32_to_Ptri32,@function
MapIterable_B_init_iterableIntIterable_fFunctionPtri32_to_Ptri32: # @MapIterable_B_init_iterableIntIterable_fFunctionPtri32_to_Ptri32
# %bb.0:
	movq	184(%rdi), %rax
	retq
.Lfunc_end119:
	.size	MapIterable_B_init_iterableIntIterable_fFunctionPtri32_to_Ptri32, .Lfunc_end119-MapIterable_B_init_iterableIntIterable_fFunctionPtri32_to_Ptri32
                                        # -- End function
	.globl	MapIterable_B_each_fFunctionPtri32_to_Nothing # -- Begin function MapIterable_B_each_fFunctionPtri32_to_Nothing
	.p2align	4, 0x90
	.type	MapIterable_B_each_fFunctionPtri32_to_Nothing,@function
MapIterable_B_each_fFunctionPtri32_to_Nothing: # @MapIterable_B_each_fFunctionPtri32_to_Nothing
# %bb.0:
	movq	192(%rdi), %rax
	retq
.Lfunc_end120:
	.size	MapIterable_B_each_fFunctionPtri32_to_Nothing, .Lfunc_end120-MapIterable_B_each_fFunctionPtri32_to_Nothing
                                        # -- End function
	.globl	MapIterable_B_reduce_initial_valPtri32_fFunctionPtri32._Ptri32_to_Ptri32 # -- Begin function MapIterable_B_reduce_initial_valPtri32_fFunctionPtri32._Ptri32_to_Ptri32
	.p2align	4, 0x90
	.type	MapIterable_B_reduce_initial_valPtri32_fFunctionPtri32._Ptri32_to_Ptri32,@function
MapIterable_B_reduce_initial_valPtri32_fFunctionPtri32._Ptri32_to_Ptri32: # @MapIterable_B_reduce_initial_valPtri32_fFunctionPtri32._Ptri32_to_Ptri32
# %bb.0:
	movq	200(%rdi), %rax
	retq
.Lfunc_end121:
	.size	MapIterable_B_reduce_initial_valPtri32_fFunctionPtri32._Ptri32_to_Ptri32, .Lfunc_end121-MapIterable_B_reduce_initial_valPtri32_fFunctionPtri32._Ptri32_to_Ptri32
                                        # -- End function
	.globl	MapIterable_B_all_fFunctionPtri32_to_Ptri1 # -- Begin function MapIterable_B_all_fFunctionPtri32_to_Ptri1
	.p2align	4, 0x90
	.type	MapIterable_B_all_fFunctionPtri32_to_Ptri1,@function
MapIterable_B_all_fFunctionPtri32_to_Ptri1: # @MapIterable_B_all_fFunctionPtri32_to_Ptri1
# %bb.0:
	movq	208(%rdi), %rax
	retq
.Lfunc_end122:
	.size	MapIterable_B_all_fFunctionPtri32_to_Ptri1, .Lfunc_end122-MapIterable_B_all_fFunctionPtri32_to_Ptri1
                                        # -- End function
	.globl	MapIterable_B_any_fFunctionPtri32_to_Ptri1 # -- Begin function MapIterable_B_any_fFunctionPtri32_to_Ptri1
	.p2align	4, 0x90
	.type	MapIterable_B_any_fFunctionPtri32_to_Ptri1,@function
MapIterable_B_any_fFunctionPtri32_to_Ptri1: # @MapIterable_B_any_fFunctionPtri32_to_Ptri1
# %bb.0:
	movq	216(%rdi), %rax
	retq
.Lfunc_end123:
	.size	MapIterable_B_any_fFunctionPtri32_to_Ptri1, .Lfunc_end123-MapIterable_B_any_fFunctionPtri32_to_Ptri1
                                        # -- End function
	.globl	MapIterable_B_map_fFunctionPtri32_to_Ptri32 # -- Begin function MapIterable_B_map_fFunctionPtri32_to_Ptri32
	.p2align	4, 0x90
	.type	MapIterable_B_map_fFunctionPtri32_to_Ptri32,@function
MapIterable_B_map_fFunctionPtri32_to_Ptri32: # @MapIterable_B_map_fFunctionPtri32_to_Ptri32
# %bb.0:
	movq	224(%rdi), %rax
	retq
.Lfunc_end124:
	.size	MapIterable_B_map_fFunctionPtri32_to_Ptri32, .Lfunc_end124-MapIterable_B_map_fFunctionPtri32_to_Ptri32
                                        # -- End function
	.globl	MapIterable_B_filter_fFunctionPtri32_to_Ptri1 # -- Begin function MapIterable_B_filter_fFunctionPtri32_to_Ptri1
	.p2align	4, 0x90
	.type	MapIterable_B_filter_fFunctionPtri32_to_Ptri1,@function
MapIterable_B_filter_fFunctionPtri32_to_Ptri1: # @MapIterable_B_filter_fFunctionPtri32_to_Ptri1
# %bb.0:
	movq	232(%rdi), %rax
	retq
.Lfunc_end125:
	.size	MapIterable_B_filter_fFunctionPtri32_to_Ptri1, .Lfunc_end125-MapIterable_B_filter_fFunctionPtri32_to_Ptri1
                                        # -- End function
	.globl	MapIterable_B_chain_otherIntIterable # -- Begin function MapIterable_B_chain_otherIntIterable
	.p2align	4, 0x90
	.type	MapIterable_B_chain_otherIntIterable,@function
MapIterable_B_chain_otherIntIterable:   # @MapIterable_B_chain_otherIntIterable
# %bb.0:
	movq	240(%rdi), %rax
	retq
.Lfunc_end126:
	.size	MapIterable_B_chain_otherIntIterable, .Lfunc_end126-MapIterable_B_chain_otherIntIterable
                                        # -- End function
	.globl	MapIterable_B_interleave_otherIntIterable # -- Begin function MapIterable_B_interleave_otherIntIterable
	.p2align	4, 0x90
	.type	MapIterable_B_interleave_otherIntIterable,@function
MapIterable_B_interleave_otherIntIterable: # @MapIterable_B_interleave_otherIntIterable
# %bb.0:
	movq	248(%rdi), %rax
	retq
.Lfunc_end127:
	.size	MapIterable_B_interleave_otherIntIterable, .Lfunc_end127-MapIterable_B_interleave_otherIntIterable
                                        # -- End function
	.globl	MapIterable_B_zip_otherIntIterable # -- Begin function MapIterable_B_zip_otherIntIterable
	.p2align	4, 0x90
	.type	MapIterable_B_zip_otherIntIterable,@function
MapIterable_B_zip_otherIntIterable:     # @MapIterable_B_zip_otherIntIterable
# %bb.0:
	movq	256(%rdi), %rax
	retq
.Lfunc_end128:
	.size	MapIterable_B_zip_otherIntIterable, .Lfunc_end128-MapIterable_B_zip_otherIntIterable
                                        # -- End function
	.globl	MapIterable_B_product_otherIntIterable # -- Begin function MapIterable_B_product_otherIntIterable
	.p2align	4, 0x90
	.type	MapIterable_B_product_otherIntIterable,@function
MapIterable_B_product_otherIntIterable: # @MapIterable_B_product_otherIntIterable
# %bb.0:
	movq	264(%rdi), %rax
	retq
.Lfunc_end129:
	.size	MapIterable_B_product_otherIntIterable, .Lfunc_end129-MapIterable_B_product_otherIntIterable
                                        # -- End function
	.globl	MapIterable_B_iterator_         # -- Begin function MapIterable_B_iterator_
	.p2align	4, 0x90
	.type	MapIterable_B_iterator_,@function
MapIterable_B_iterator_:                # @MapIterable_B_iterator_
# %bb.0:
	movq	272(%rdi), %rax
	retq
.Lfunc_end130:
	.size	MapIterable_B_iterator_, .Lfunc_end130-MapIterable_B_iterator_
                                        # -- End function
	.globl	MapIterable_init_iterableIntIterable_fFunctionPtri32_to_Ptri32 # -- Begin function MapIterable_init_iterableIntIterable_fFunctionPtri32_to_Ptri32
	.p2align	4, 0x90
	.type	MapIterable_init_iterableIntIterable_fFunctionPtri32_to_Ptri32,@function
MapIterable_init_iterableIntIterable_fFunctionPtri32_to_Ptri32: # @MapIterable_init_iterableIntIterable_fFunctionPtri32_to_Ptri32
	.cfi_startproc
# %bb.0:
	pushq	%r15
	.cfi_def_cfa_offset 16
	pushq	%r14
	.cfi_def_cfa_offset 24
	pushq	%r12
	.cfi_def_cfa_offset 32
	pushq	%rbx
	.cfi_def_cfa_offset 40
	pushq	%rax
	.cfi_def_cfa_offset 48
	.cfi_offset %rbx, -40
	.cfi_offset %r12, -32
	.cfi_offset %r14, -24
	.cfi_offset %r15, -16
	movq	%rsi, %rbx
	movq	%rdi, %r15
	movq	104(%rsp), %r14
	movq	80(%rsp), %rdx
	movq	88(%rsp), %rcx
	movq	72(%rsp), %rsi
	movq	40(%rdi), %rax
	movabsq	$-7488770571603291722, %rdi     # imm = 0x98128AD7A32FD1B6
	imulq	8(%r15), %rdi
	movq	%rdi, %r8
	shrq	$32, %r8
	xorq	%rdi, %r8
	andq	16(%r15), %r8
	movslq	(%rax,%r8,4), %r12
	movq	40(%rsi), %rax
	movabsq	$-7984962120415158575, %rdi     # imm = 0x912FB741F3B45ED1
	imulq	8(%rsi), %rdi
	movq	%rdi, %r8
	shrq	$32, %r8
	xorq	%rdi, %r8
	andq	16(%rsi), %r8
	movl	(%rax,%r8,4), %r8d
	movq	(%r15,%r12,8), %rax
	movq	%rbx, %rdi
	callq	*8(%rax)
	movq	8(%r15,%r12,8), %rax
	movq	8(%rax), %rax
	movq	%rbx, %rdi
	movq	%r14, %rsi
	addq	$8, %rsp
	.cfi_def_cfa_offset 40
	popq	%rbx
	.cfi_def_cfa_offset 32
	popq	%r12
	.cfi_def_cfa_offset 24
	popq	%r14
	.cfi_def_cfa_offset 16
	popq	%r15
	.cfi_def_cfa_offset 8
	jmpq	*%rax                           # TAILCALL
.Lfunc_end131:
	.size	MapIterable_init_iterableIntIterable_fFunctionPtri32_to_Ptri32, .Lfunc_end131-MapIterable_init_iterableIntIterable_fFunctionPtri32_to_Ptri32
	.cfi_endproc
                                        # -- End function
	.globl	IntIterable_each_fFunctionPtri32_to_Nothing # -- Begin function IntIterable_each_fFunctionPtri32_to_Nothing
	.p2align	4, 0x90
	.type	IntIterable_each_fFunctionPtri32_to_Nothing,@function
IntIterable_each_fFunctionPtri32_to_Nothing: # @IntIterable_each_fFunctionPtri32_to_Nothing
	.cfi_startproc
# %bb.0:
	pushq	%rbp
	.cfi_def_cfa_offset 16
	pushq	%r15
	.cfi_def_cfa_offset 24
	pushq	%r14
	.cfi_def_cfa_offset 32
	pushq	%r13
	.cfi_def_cfa_offset 40
	pushq	%r12
	.cfi_def_cfa_offset 48
	pushq	%rbx
	.cfi_def_cfa_offset 56
	subq	$40, %rsp
	.cfi_def_cfa_offset 96
	.cfi_offset %rbx, -56
	.cfi_offset %r12, -48
	.cfi_offset %r13, -40
	.cfi_offset %r14, -32
	.cfi_offset %r15, -24
	.cfi_offset %rbp, -16
	movq	%rdx, %r15
	movq	%rsi, %r14
	movq	%rdi, %r12
	movq	40(%rdi), %rax
	movabsq	$-7984962120415158575, %rcx     # imm = 0x912FB741F3B45ED1
	imulq	8(%rdi), %rcx
	movq	%rcx, %rdx
	shrq	$32, %rdx
	xorq	%rcx, %rdx
	andq	16(%rdi), %rdx
	movslq	(%rax,%rdx,4), %r13
	movq	%rsp, %rbx
	movq	%r15, %rdx
	movl	%r13d, %ecx
	movq	%rbx, %r8
	callq	*80(%rdi,%r13,8)
	leaq	8(%rsp), %rdi
	movq	%r12, %rsi
	movq	%r14, %rdx
	movq	%r15, %rcx
	movl	%r13d, %r8d
	movq	%r12, %r9
	pushq	%rbx
	.cfi_adjust_cfa_offset 8
	pushq	%r13
	.cfi_adjust_cfa_offset 8
	pushq	%r15
	.cfi_adjust_cfa_offset 8
	pushq	%r14
	.cfi_adjust_cfa_offset 8
	callq	*%rax
	addq	$32, %rsp
	.cfi_adjust_cfa_offset -32
	movq	24(%rsp), %r14
	movq	8(%rsp), %r15
	movq	16(%rsp), %r12
	movq	40(%r15), %rax
	movabsq	$-933084275656658555, %rcx      # imm = 0xF30D04CB83FB7185
	imulq	8(%r15), %rcx
	movq	%rcx, %rdx
	shrq	$32, %rdx
	xorq	%rcx, %rdx
	andq	16(%r15), %rdx
	movslq	(%rax,%rdx,4), %r13
	movq	%r15, %rdi
	movq	%r12, %rsi
	movq	%r14, %rdx
	movl	%r13d, %ecx
	movq	%rbx, %r8
	callq	*(%r15,%r13,8)
	subq	$8, %rsp
	.cfi_adjust_cfa_offset 8
	movq	%r15, %rdi
	movq	%r12, %rsi
	movq	%r14, %rdx
	movl	%r13d, %ecx
	movq	%r15, %r8
	movq	%r12, %r9
	pushq	%rbx
	.cfi_adjust_cfa_offset 8
	pushq	%r13
	.cfi_adjust_cfa_offset 8
	pushq	%r14
	.cfi_adjust_cfa_offset 8
	callq	*%rax
	addq	$32, %rsp
	.cfi_adjust_cfa_offset -32
	cmpq	nil_typ@GOTPCREL(%rip), %rax
	sete	%cl
	testq	%rax, %rax
	sete	%al
	orb	%cl, %al
	jne	.LBB132_4
# %bb.1:                                # %._crit_edge.preheader
	movq	nil_typ@GOTPCREL(%rip), %rbp
	.p2align	4, 0x90
.LBB132_2:                              # %._crit_edge
                                        # =>This Inner Loop Header: Depth=1
	movl	%edx, %edi
	callq	*120(%rsp)
	movq	%r15, %rdi
	movq	%r12, %rsi
	movq	%r14, %rdx
	movl	%r13d, %ecx
	movq	%rbx, %r8
	callq	*(%r15,%r13,8)
	subq	$8, %rsp
	.cfi_adjust_cfa_offset 8
	movq	%r15, %rdi
	movq	%r12, %rsi
	movq	%r14, %rdx
	movl	%r13d, %ecx
	movq	%r15, %r8
	movq	%r12, %r9
	pushq	%rbx
	.cfi_adjust_cfa_offset 8
	pushq	%r13
	.cfi_adjust_cfa_offset 8
	pushq	%r14
	.cfi_adjust_cfa_offset 8
	callq	*%rax
	addq	$32, %rsp
	.cfi_adjust_cfa_offset -32
	cmpq	%rbp, %rax
	je	.LBB132_4
# %bb.3:                                # %._crit_edge
                                        #   in Loop: Header=BB132_2 Depth=1
	testq	%rax, %rax
	jne	.LBB132_2
.LBB132_4:                              # %.critedge
	addq	$40, %rsp
	.cfi_def_cfa_offset 56
	popq	%rbx
	.cfi_def_cfa_offset 48
	popq	%r12
	.cfi_def_cfa_offset 40
	popq	%r13
	.cfi_def_cfa_offset 32
	popq	%r14
	.cfi_def_cfa_offset 24
	popq	%r15
	.cfi_def_cfa_offset 16
	popq	%rbp
	.cfi_def_cfa_offset 8
	retq
.Lfunc_end132:
	.size	IntIterable_each_fFunctionPtri32_to_Nothing, .Lfunc_end132-IntIterable_each_fFunctionPtri32_to_Nothing
	.cfi_endproc
                                        # -- End function
	.globl	IntIterable_reduce_initial_valPtri32_fFunctionPtri32._Ptri32_to_Ptri32 # -- Begin function IntIterable_reduce_initial_valPtri32_fFunctionPtri32._Ptri32_to_Ptri32
	.p2align	4, 0x90
	.type	IntIterable_reduce_initial_valPtri32_fFunctionPtri32._Ptri32_to_Ptri32,@function
IntIterable_reduce_initial_valPtri32_fFunctionPtri32._Ptri32_to_Ptri32: # @IntIterable_reduce_initial_valPtri32_fFunctionPtri32._Ptri32_to_Ptri32
	.cfi_startproc
# %bb.0:
	pushq	%rbp
	.cfi_def_cfa_offset 16
	pushq	%r15
	.cfi_def_cfa_offset 24
	pushq	%r14
	.cfi_def_cfa_offset 32
	pushq	%r13
	.cfi_def_cfa_offset 40
	pushq	%r12
	.cfi_def_cfa_offset 48
	pushq	%rbx
	.cfi_def_cfa_offset 56
	subq	$40, %rsp
	.cfi_def_cfa_offset 96
	.cfi_offset %rbx, -56
	.cfi_offset %r12, -48
	.cfi_offset %r13, -40
	.cfi_offset %r14, -32
	.cfi_offset %r15, -24
	.cfi_offset %rbp, -16
	movq	%rdx, %r12
	movq	%rsi, %r15
	movq	%rdi, %r13
	movl	120(%rsp), %ebx
	movq	40(%rdi), %rax
	movabsq	$-7984962120415158575, %rcx     # imm = 0x912FB741F3B45ED1
	imulq	8(%rdi), %rcx
	movq	%rcx, %rdx
	shrq	$32, %rdx
	xorq	%rcx, %rdx
	andq	16(%rdi), %rdx
	movslq	(%rax,%rdx,4), %rbp
	movq	%rsp, %r14
	movq	%r12, %rdx
	movl	%ebp, %ecx
	movq	%r14, %r8
	callq	*80(%rdi,%rbp,8)
	leaq	8(%rsp), %rdi
	movq	%r13, %rsi
	movq	%r15, %rdx
	movq	%r12, %rcx
	movl	%ebp, %r8d
	movq	%r13, %r9
	pushq	%r14
	.cfi_adjust_cfa_offset 8
	pushq	%rbp
	.cfi_adjust_cfa_offset 8
	pushq	%r12
	.cfi_adjust_cfa_offset 8
	pushq	%r15
	.cfi_adjust_cfa_offset 8
	callq	*%rax
	addq	$32, %rsp
	.cfi_adjust_cfa_offset -32
	movq	24(%rsp), %r15
	movq	8(%rsp), %r12
	movq	16(%rsp), %r13
	movq	40(%r12), %rax
	movabsq	$-933084275656658555, %rcx      # imm = 0xF30D04CB83FB7185
	imulq	8(%r12), %rcx
	movq	%rcx, %rdx
	shrq	$32, %rdx
	xorq	%rcx, %rdx
	andq	16(%r12), %rdx
	movslq	(%rax,%rdx,4), %rbp
	movq	%r12, %rdi
	movq	%r13, %rsi
	movq	%r15, %rdx
	movl	%ebp, %ecx
	movq	%r14, %r8
	callq	*(%r12,%rbp,8)
	subq	$8, %rsp
	.cfi_adjust_cfa_offset 8
	movq	%r12, %rdi
	movq	%r13, %rsi
	movq	%r15, %rdx
	movl	%ebp, %ecx
	movq	%r12, %r8
	movq	%r13, %r9
	pushq	%r14
	.cfi_adjust_cfa_offset 8
	pushq	%rbp
	.cfi_adjust_cfa_offset 8
	pushq	%r15
	.cfi_adjust_cfa_offset 8
	callq	*%rax
	addq	$32, %rsp
	.cfi_adjust_cfa_offset -32
	cmpq	nil_typ@GOTPCREL(%rip), %rax
	sete	%cl
	testq	%rax, %rax
	sete	%al
	orb	%cl, %al
	jne	.LBB133_3
	.p2align	4, 0x90
.LBB133_1:                              # %.lr.ph
                                        # =>This Inner Loop Header: Depth=1
	movl	%ebx, %edi
	movl	%edx, %esi
	callq	*128(%rsp)
	movl	%eax, %ebx
	movq	%r12, %rdi
	movq	%r13, %rsi
	movq	%r15, %rdx
	movl	%ebp, %ecx
	movq	%r14, %r8
	callq	*(%r12,%rbp,8)
	subq	$8, %rsp
	.cfi_adjust_cfa_offset 8
	movq	%r12, %rdi
	movq	%r13, %rsi
	movq	%r15, %rdx
	movl	%ebp, %ecx
	movq	%r12, %r8
	movq	%r13, %r9
	pushq	%r14
	.cfi_adjust_cfa_offset 8
	pushq	%rbp
	.cfi_adjust_cfa_offset 8
	pushq	%r15
	.cfi_adjust_cfa_offset 8
	callq	*%rax
	addq	$32, %rsp
	.cfi_adjust_cfa_offset -32
	cmpq	nil_typ@GOTPCREL(%rip), %rax
	je	.LBB133_3
# %bb.2:                                # %.lr.ph
                                        #   in Loop: Header=BB133_1 Depth=1
	testq	%rax, %rax
	jne	.LBB133_1
.LBB133_3:                              # %._crit_edge
	movl	%ebx, %eax
	addq	$40, %rsp
	.cfi_def_cfa_offset 56
	popq	%rbx
	.cfi_def_cfa_offset 48
	popq	%r12
	.cfi_def_cfa_offset 40
	popq	%r13
	.cfi_def_cfa_offset 32
	popq	%r14
	.cfi_def_cfa_offset 24
	popq	%r15
	.cfi_def_cfa_offset 16
	popq	%rbp
	.cfi_def_cfa_offset 8
	retq
.Lfunc_end133:
	.size	IntIterable_reduce_initial_valPtri32_fFunctionPtri32._Ptri32_to_Ptri32, .Lfunc_end133-IntIterable_reduce_initial_valPtri32_fFunctionPtri32._Ptri32_to_Ptri32
	.cfi_endproc
                                        # -- End function
	.globl	IntIterable_all_fFunctionPtri32_to_Ptri1 # -- Begin function IntIterable_all_fFunctionPtri32_to_Ptri1
	.p2align	4, 0x90
	.type	IntIterable_all_fFunctionPtri32_to_Ptri1,@function
IntIterable_all_fFunctionPtri32_to_Ptri1: # @IntIterable_all_fFunctionPtri32_to_Ptri1
	.cfi_startproc
# %bb.0:
	pushq	%rbp
	.cfi_def_cfa_offset 16
	pushq	%r15
	.cfi_def_cfa_offset 24
	pushq	%r14
	.cfi_def_cfa_offset 32
	pushq	%r13
	.cfi_def_cfa_offset 40
	pushq	%r12
	.cfi_def_cfa_offset 48
	pushq	%rbx
	.cfi_def_cfa_offset 56
	subq	$40, %rsp
	.cfi_def_cfa_offset 96
	.cfi_offset %rbx, -56
	.cfi_offset %r12, -48
	.cfi_offset %r13, -40
	.cfi_offset %r14, -32
	.cfi_offset %r15, -24
	.cfi_offset %rbp, -16
	movq	%rdx, %r15
	movq	%rsi, %r14
	movq	%rdi, %r12
	movq	40(%rdi), %rax
	movabsq	$-7984962120415158575, %rcx     # imm = 0x912FB741F3B45ED1
	imulq	8(%rdi), %rcx
	movq	%rcx, %rdx
	shrq	$32, %rdx
	xorq	%rcx, %rdx
	andq	16(%rdi), %rdx
	movslq	(%rax,%rdx,4), %r13
	movq	%rsp, %rbx
	movq	%r15, %rdx
	movl	%r13d, %ecx
	movq	%rbx, %r8
	callq	*80(%rdi,%r13,8)
	leaq	8(%rsp), %rdi
	movq	%r12, %rsi
	movq	%r14, %rdx
	movq	%r15, %rcx
	movl	%r13d, %r8d
	movq	%r12, %r9
	pushq	%rbx
	.cfi_adjust_cfa_offset 8
	pushq	%r13
	.cfi_adjust_cfa_offset 8
	pushq	%r15
	.cfi_adjust_cfa_offset 8
	pushq	%r14
	.cfi_adjust_cfa_offset 8
	callq	*%rax
	addq	$32, %rsp
	.cfi_adjust_cfa_offset -32
	movq	24(%rsp), %r14
	movq	8(%rsp), %r15
	movq	16(%rsp), %r12
	movq	40(%r15), %rax
	movabsq	$-933084275656658555, %rcx      # imm = 0xF30D04CB83FB7185
	imulq	8(%r15), %rcx
	movq	%rcx, %rdx
	shrq	$32, %rdx
	xorq	%rcx, %rdx
	andq	16(%r15), %rdx
	movslq	(%rax,%rdx,4), %r13
	.p2align	4, 0x90
.LBB134_1:                              # =>This Inner Loop Header: Depth=1
	movq	%r15, %rdi
	movq	%r12, %rsi
	movq	%r14, %rdx
	movl	%r13d, %ecx
	movq	%rbx, %r8
	callq	*(%r15,%r13,8)
	subq	$8, %rsp
	.cfi_adjust_cfa_offset 8
	movq	%r15, %rdi
	movq	%r12, %rsi
	movq	%r14, %rdx
	movl	%r13d, %ecx
	movq	%r15, %r8
	movq	%r12, %r9
	pushq	%rbx
	.cfi_adjust_cfa_offset 8
	pushq	%r13
	.cfi_adjust_cfa_offset 8
	pushq	%r14
	.cfi_adjust_cfa_offset 8
	callq	*%rax
	addq	$32, %rsp
	.cfi_adjust_cfa_offset -32
	cmpq	nil_typ@GOTPCREL(%rip), %rax
	sete	%cl
	testq	%rax, %rax
	sete	%bpl
	orb	%cl, %bpl
	jne	.LBB134_3
# %bb.2:                                #   in Loop: Header=BB134_1 Depth=1
	movl	%edx, %edi
	callq	*120(%rsp)
	testb	$1, %al
	jne	.LBB134_1
.LBB134_3:                              # %.critedge.cont
	movl	%ebp, %eax
	addq	$40, %rsp
	.cfi_def_cfa_offset 56
	popq	%rbx
	.cfi_def_cfa_offset 48
	popq	%r12
	.cfi_def_cfa_offset 40
	popq	%r13
	.cfi_def_cfa_offset 32
	popq	%r14
	.cfi_def_cfa_offset 24
	popq	%r15
	.cfi_def_cfa_offset 16
	popq	%rbp
	.cfi_def_cfa_offset 8
	retq
.Lfunc_end134:
	.size	IntIterable_all_fFunctionPtri32_to_Ptri1, .Lfunc_end134-IntIterable_all_fFunctionPtri32_to_Ptri1
	.cfi_endproc
                                        # -- End function
	.globl	IntIterable_any_fFunctionPtri32_to_Ptri1 # -- Begin function IntIterable_any_fFunctionPtri32_to_Ptri1
	.p2align	4, 0x90
	.type	IntIterable_any_fFunctionPtri32_to_Ptri1,@function
IntIterable_any_fFunctionPtri32_to_Ptri1: # @IntIterable_any_fFunctionPtri32_to_Ptri1
	.cfi_startproc
# %bb.0:
	pushq	%rbp
	.cfi_def_cfa_offset 16
	pushq	%r15
	.cfi_def_cfa_offset 24
	pushq	%r14
	.cfi_def_cfa_offset 32
	pushq	%r13
	.cfi_def_cfa_offset 40
	pushq	%r12
	.cfi_def_cfa_offset 48
	pushq	%rbx
	.cfi_def_cfa_offset 56
	subq	$40, %rsp
	.cfi_def_cfa_offset 96
	.cfi_offset %rbx, -56
	.cfi_offset %r12, -48
	.cfi_offset %r13, -40
	.cfi_offset %r14, -32
	.cfi_offset %r15, -24
	.cfi_offset %rbp, -16
	movq	%rdx, %r15
	movq	%rsi, %r14
	movq	%rdi, %r12
	movq	40(%rdi), %rax
	movabsq	$-7984962120415158575, %rcx     # imm = 0x912FB741F3B45ED1
	imulq	8(%rdi), %rcx
	movq	%rcx, %rdx
	shrq	$32, %rdx
	xorq	%rcx, %rdx
	andq	16(%rdi), %rdx
	movslq	(%rax,%rdx,4), %r13
	movq	%rsp, %rbx
	movq	%r15, %rdx
	movl	%r13d, %ecx
	movq	%rbx, %r8
	callq	*80(%rdi,%r13,8)
	leaq	8(%rsp), %rdi
	movq	%r12, %rsi
	movq	%r14, %rdx
	movq	%r15, %rcx
	movl	%r13d, %r8d
	movq	%r12, %r9
	pushq	%rbx
	.cfi_adjust_cfa_offset 8
	pushq	%r13
	.cfi_adjust_cfa_offset 8
	pushq	%r15
	.cfi_adjust_cfa_offset 8
	pushq	%r14
	.cfi_adjust_cfa_offset 8
	callq	*%rax
	addq	$32, %rsp
	.cfi_adjust_cfa_offset -32
	movq	24(%rsp), %r14
	movq	8(%rsp), %r15
	movq	16(%rsp), %r12
	movq	40(%r15), %rax
	movabsq	$-933084275656658555, %rcx      # imm = 0xF30D04CB83FB7185
	imulq	8(%r15), %rcx
	movq	%rcx, %rdx
	shrq	$32, %rdx
	xorq	%rcx, %rdx
	andq	16(%r15), %rdx
	movslq	(%rax,%rdx,4), %r13
	.p2align	4, 0x90
.LBB135_1:                              # =>This Inner Loop Header: Depth=1
	movq	%r15, %rdi
	movq	%r12, %rsi
	movq	%r14, %rdx
	movl	%r13d, %ecx
	movq	%rbx, %r8
	callq	*(%r15,%r13,8)
	subq	$8, %rsp
	.cfi_adjust_cfa_offset 8
	movq	%r15, %rdi
	movq	%r12, %rsi
	movq	%r14, %rdx
	movl	%r13d, %ecx
	movq	%r15, %r8
	movq	%r12, %r9
	pushq	%rbx
	.cfi_adjust_cfa_offset 8
	pushq	%r13
	.cfi_adjust_cfa_offset 8
	pushq	%r14
	.cfi_adjust_cfa_offset 8
	callq	*%rax
	addq	$32, %rsp
	.cfi_adjust_cfa_offset -32
	cmpq	nil_typ@GOTPCREL(%rip), %rax
	setne	%cl
	testq	%rax, %rax
	setne	%bpl
	andb	%cl, %bpl
	cmpb	$1, %bpl
	jne	.LBB135_3
# %bb.2:                                #   in Loop: Header=BB135_1 Depth=1
	movl	%edx, %edi
	callq	*120(%rsp)
	testb	$1, %al
	je	.LBB135_1
.LBB135_3:                              # %.critedge.cont
	movl	%ebp, %eax
	addq	$40, %rsp
	.cfi_def_cfa_offset 56
	popq	%rbx
	.cfi_def_cfa_offset 48
	popq	%r12
	.cfi_def_cfa_offset 40
	popq	%r13
	.cfi_def_cfa_offset 32
	popq	%r14
	.cfi_def_cfa_offset 24
	popq	%r15
	.cfi_def_cfa_offset 16
	popq	%rbp
	.cfi_def_cfa_offset 8
	retq
.Lfunc_end135:
	.size	IntIterable_any_fFunctionPtri32_to_Ptri1, .Lfunc_end135-IntIterable_any_fFunctionPtri32_to_Ptri1
	.cfi_endproc
                                        # -- End function
	.globl	IntIterable_map_fFunctionPtri32_to_Ptri32 # -- Begin function IntIterable_map_fFunctionPtri32_to_Ptri32
	.p2align	4, 0x90
	.type	IntIterable_map_fFunctionPtri32_to_Ptri32,@function
IntIterable_map_fFunctionPtri32_to_Ptri32: # @IntIterable_map_fFunctionPtri32_to_Ptri32
# %bb.0:
	pushq	%r15
	pushq	%r14
	pushq	%r13
	pushq	%r12
	pushq	%rbx
	movq	%rcx, %r14
	movq	%rdx, %r15
	movq	%rsi, %r12
	movq	%rdi, %rbx
	movq	80(%rsp), %r13
	movq	%fs:0, %rax
	leaq	current_ptr@TPOFF(%rax), %rsi
	movl	$40, %edi
	callq	bump_malloc_inner@PLT
	movq	40(%r12), %rcx
	movabsq	$-7984962120415158575, %rdx     # imm = 0x912FB741F3B45ED1
	imulq	8(%r12), %rdx
	movq	%rdx, %rsi
	shrq	$32, %rsi
	xorq	%rdx, %rsi
	andq	16(%r12), %rsi
	movl	(%rcx,%rsi,4), %ecx
	movq	MapIterable@GOTPCREL(%rip), %rdx
	movq	%r12, (%rax)
	movq	%r15, 8(%rax)
	movq	%r14, 16(%rax)
	movl	%ecx, 24(%rax)
	movq	%r13, 32(%rax)
	movq	%rax, 8(%rbx)
	movq	%rdx, (%rbx)
	movl	$35, 24(%rbx)
	movq	%rbx, %rax
	popq	%rbx
	popq	%r12
	popq	%r13
	popq	%r14
	popq	%r15
	retq
.Lfunc_end136:
	.size	IntIterable_map_fFunctionPtri32_to_Ptri32, .Lfunc_end136-IntIterable_map_fFunctionPtri32_to_Ptri32
                                        # -- End function
	.globl	IntIterable_filter_fFunctionPtri32_to_Ptri1 # -- Begin function IntIterable_filter_fFunctionPtri32_to_Ptri1
	.p2align	4, 0x90
	.type	IntIterable_filter_fFunctionPtri32_to_Ptri1,@function
IntIterable_filter_fFunctionPtri32_to_Ptri1: # @IntIterable_filter_fFunctionPtri32_to_Ptri1
# %bb.0:
	pushq	%r15
	pushq	%r14
	pushq	%r13
	pushq	%r12
	pushq	%rbx
	movq	%rcx, %r14
	movq	%rdx, %r15
	movq	%rsi, %r12
	movq	%rdi, %rbx
	movq	80(%rsp), %r13
	movq	%fs:0, %rax
	leaq	current_ptr@TPOFF(%rax), %rsi
	movl	$40, %edi
	callq	bump_malloc_inner@PLT
	movq	FilterIterable@GOTPCREL(%rip), %rcx
	movq	40(%r12), %rdx
	movabsq	$-7984962120415158575, %rsi     # imm = 0x912FB741F3B45ED1
	imulq	8(%r12), %rsi
	movq	%rsi, %rdi
	shrq	$32, %rdi
	xorq	%rsi, %rdi
	andq	16(%r12), %rdi
	movl	(%rdx,%rdi,4), %edx
	movq	%r12, (%rax)
	movq	%r15, 8(%rax)
	movq	%r14, 16(%rax)
	movl	%edx, 24(%rax)
	movq	%r13, 32(%rax)
	movq	%rax, 8(%rbx)
	movq	%rcx, (%rbx)
	movl	$35, 24(%rbx)
	movq	%rbx, %rax
	popq	%rbx
	popq	%r12
	popq	%r13
	popq	%r14
	popq	%r15
	retq
.Lfunc_end137:
	.size	IntIterable_filter_fFunctionPtri32_to_Ptri1, .Lfunc_end137-IntIterable_filter_fFunctionPtri32_to_Ptri1
                                        # -- End function
	.globl	IntIterable_chain_otherIntIterable # -- Begin function IntIterable_chain_otherIntIterable
	.p2align	4, 0x90
	.type	IntIterable_chain_otherIntIterable,@function
IntIterable_chain_otherIntIterable:     # @IntIterable_chain_otherIntIterable
# %bb.0:
	pushq	%rbp
	pushq	%r15
	pushq	%r14
	pushq	%r13
	pushq	%r12
	pushq	%rbx
	pushq	%rax
	movq	%rcx, %r14
	movq	%rdx, %r15
	movq	%rsi, %r12
	movq	%rdi, %rbx
	movq	104(%rsp), %rbp
	movq	96(%rsp), %r13
	movq	%fs:0, %rax
	leaq	current_ptr@TPOFF(%rax), %rsi
	movl	$64, %edi
	callq	bump_malloc_inner@PLT
	movq	ChainIterable@GOTPCREL(%rip), %rcx
	movq	40(%r12), %rdx
	movabsq	$-7984962120415158575, %rsi     # imm = 0x912FB741F3B45ED1
	movq	8(%r12), %rdi
	imulq	%rsi, %rdi
	movq	%rdi, %r8
	shrq	$32, %r8
	xorq	%rdi, %r8
	andq	16(%r12), %r8
	movl	(%rdx,%r8,4), %edx
	movq	%r12, (%rax)
	movq	%r15, 8(%rax)
	movq	%r14, 16(%rax)
	movl	%edx, 24(%rax)
	movq	40(%r13), %rdx
	imulq	8(%r13), %rsi
	movq	%rsi, %rdi
	shrq	$32, %rdi
	xorq	%rsi, %rdi
	andq	16(%r13), %rdi
	movl	(%rdx,%rdi,4), %edx
	movq	%r13, 32(%rax)
	movq	%rbp, 40(%rax)
	movq	112(%rsp), %rsi
	movq	%rsi, 48(%rax)
	movl	%edx, 56(%rax)
	movq	%rcx, (%rbx)
	movq	%rax, 8(%rbx)
	movl	$35, 24(%rbx)
	movq	%rbx, %rax
	addq	$8, %rsp
	popq	%rbx
	popq	%r12
	popq	%r13
	popq	%r14
	popq	%r15
	popq	%rbp
	retq
.Lfunc_end138:
	.size	IntIterable_chain_otherIntIterable, .Lfunc_end138-IntIterable_chain_otherIntIterable
                                        # -- End function
	.globl	IntIterable_interleave_otherIntIterable # -- Begin function IntIterable_interleave_otherIntIterable
	.p2align	4, 0x90
	.type	IntIterable_interleave_otherIntIterable,@function
IntIterable_interleave_otherIntIterable: # @IntIterable_interleave_otherIntIterable
# %bb.0:
	pushq	%rbp
	pushq	%r15
	pushq	%r14
	pushq	%r13
	pushq	%r12
	pushq	%rbx
	pushq	%rax
	movq	%rcx, %r14
	movq	%rdx, %r15
	movq	%rsi, %r12
	movq	%rdi, %rbx
	movq	104(%rsp), %rbp
	movq	96(%rsp), %r13
	movq	%fs:0, %rax
	leaq	current_ptr@TPOFF(%rax), %rsi
	movl	$64, %edi
	callq	bump_malloc_inner@PLT
	movq	InterleaveIterable@GOTPCREL(%rip), %rcx
	movq	40(%r12), %rdx
	movabsq	$-7984962120415158575, %rsi     # imm = 0x912FB741F3B45ED1
	movq	8(%r12), %rdi
	imulq	%rsi, %rdi
	movq	%rdi, %r8
	shrq	$32, %r8
	xorq	%rdi, %r8
	andq	16(%r12), %r8
	movl	(%rdx,%r8,4), %edx
	movq	%r12, (%rax)
	movq	%r15, 8(%rax)
	movq	%r14, 16(%rax)
	movl	%edx, 24(%rax)
	movq	40(%r13), %rdx
	imulq	8(%r13), %rsi
	movq	%rsi, %rdi
	shrq	$32, %rdi
	xorq	%rsi, %rdi
	andq	16(%r13), %rdi
	movl	(%rdx,%rdi,4), %edx
	movq	%r13, 32(%rax)
	movq	%rbp, 40(%rax)
	movq	112(%rsp), %rsi
	movq	%rsi, 48(%rax)
	movl	%edx, 56(%rax)
	movq	%rcx, (%rbx)
	movq	%rax, 8(%rbx)
	movl	$35, 24(%rbx)
	movq	%rbx, %rax
	addq	$8, %rsp
	popq	%rbx
	popq	%r12
	popq	%r13
	popq	%r14
	popq	%r15
	popq	%rbp
	retq
.Lfunc_end139:
	.size	IntIterable_interleave_otherIntIterable, .Lfunc_end139-IntIterable_interleave_otherIntIterable
                                        # -- End function
	.globl	IntIterable_zip_otherIntIterable # -- Begin function IntIterable_zip_otherIntIterable
	.p2align	4, 0x90
	.type	IntIterable_zip_otherIntIterable,@function
IntIterable_zip_otherIntIterable:       # @IntIterable_zip_otherIntIterable
# %bb.0:
	pushq	%rbp
	pushq	%r15
	pushq	%r14
	pushq	%r13
	pushq	%r12
	pushq	%rbx
	pushq	%rax
	movq	%rcx, %r14
	movq	%rdx, %r15
	movq	%rsi, %r12
	movq	%rdi, %rbx
	movq	104(%rsp), %rbp
	movq	96(%rsp), %r13
	movq	%fs:0, %rax
	leaq	current_ptr@TPOFF(%rax), %rsi
	movl	$64, %edi
	callq	bump_malloc_inner@PLT
	movq	40(%r12), %rcx
	movabsq	$-7984962120415158575, %rdx     # imm = 0x912FB741F3B45ED1
	movq	8(%r12), %rsi
	imulq	%rdx, %rsi
	movq	%rsi, %rdi
	shrq	$32, %rdi
	xorq	%rsi, %rdi
	andq	16(%r12), %rdi
	movl	(%rcx,%rdi,4), %ecx
	movq	ZipIterable@GOTPCREL(%rip), %rsi
	movq	%r12, (%rax)
	movq	%r15, 8(%rax)
	movq	%r14, 16(%rax)
	movl	%ecx, 24(%rax)
	movq	40(%r13), %rcx
	imulq	8(%r13), %rdx
	movq	%rdx, %rdi
	shrq	$32, %rdi
	xorq	%rdx, %rdi
	andq	16(%r13), %rdi
	movl	(%rcx,%rdi,4), %ecx
	movq	%r13, 32(%rax)
	movq	%rbp, 40(%rax)
	movq	112(%rsp), %rdx
	movq	%rdx, 48(%rax)
	movl	%ecx, 56(%rax)
	movq	%rsi, (%rbx)
	movq	%rax, 8(%rbx)
	movl	$9, 24(%rbx)
	movq	%rbx, %rax
	addq	$8, %rsp
	popq	%rbx
	popq	%r12
	popq	%r13
	popq	%r14
	popq	%r15
	popq	%rbp
	retq
.Lfunc_end140:
	.size	IntIterable_zip_otherIntIterable, .Lfunc_end140-IntIterable_zip_otherIntIterable
                                        # -- End function
	.globl	IntIterable_product_otherIntIterable # -- Begin function IntIterable_product_otherIntIterable
	.p2align	4, 0x90
	.type	IntIterable_product_otherIntIterable,@function
IntIterable_product_otherIntIterable:   # @IntIterable_product_otherIntIterable
# %bb.0:
	pushq	%rbp
	pushq	%r15
	pushq	%r14
	pushq	%r13
	pushq	%r12
	pushq	%rbx
	pushq	%rax
	movq	%rcx, %r14
	movq	%rdx, %r15
	movq	%rsi, %r12
	movq	%rdi, %rbx
	movq	104(%rsp), %rbp
	movq	96(%rsp), %r13
	movq	%fs:0, %rax
	leaq	current_ptr@TPOFF(%rax), %rsi
	movl	$64, %edi
	callq	bump_malloc_inner@PLT
	movq	40(%r12), %rcx
	movabsq	$-7984962120415158575, %rdx     # imm = 0x912FB741F3B45ED1
	movq	8(%r12), %rsi
	imulq	%rdx, %rsi
	movq	%rsi, %rdi
	shrq	$32, %rdi
	xorq	%rsi, %rdi
	andq	16(%r12), %rdi
	movl	(%rcx,%rdi,4), %ecx
	movq	ProductIterable@GOTPCREL(%rip), %rsi
	movq	%r12, (%rax)
	movq	%r15, 8(%rax)
	movq	%r14, 16(%rax)
	movl	%ecx, 24(%rax)
	movq	40(%r13), %rcx
	imulq	8(%r13), %rdx
	movq	%rdx, %rdi
	shrq	$32, %rdi
	xorq	%rdx, %rdi
	andq	16(%r13), %rdi
	movl	(%rcx,%rdi,4), %ecx
	movq	%r13, 32(%rax)
	movq	%rbp, 40(%rax)
	movq	112(%rsp), %rdx
	movq	%rdx, 48(%rax)
	movl	%ecx, 56(%rax)
	movq	%rsi, (%rbx)
	movq	%rax, 8(%rbx)
	movl	$9, 24(%rbx)
	movq	%rbx, %rax
	addq	$8, %rsp
	popq	%rbx
	popq	%r12
	popq	%r13
	popq	%r14
	popq	%r15
	popq	%rbp
	retq
.Lfunc_end141:
	.size	IntIterable_product_otherIntIterable, .Lfunc_end141-IntIterable_product_otherIntIterable
                                        # -- End function
	.globl	MapIterable_iterator_           # -- Begin function MapIterable_iterator_
	.p2align	4, 0x90
	.type	MapIterable_iterator_,@function
MapIterable_iterator_:                  # @MapIterable_iterator_
	.cfi_startproc
# %bb.0:
	pushq	%rbp
	.cfi_def_cfa_offset 16
	pushq	%r15
	.cfi_def_cfa_offset 24
	pushq	%r14
	.cfi_def_cfa_offset 32
	pushq	%r13
	.cfi_def_cfa_offset 40
	pushq	%r12
	.cfi_def_cfa_offset 48
	pushq	%rbx
	.cfi_def_cfa_offset 56
	subq	$248, %rsp
	.cfi_def_cfa_offset 304
	.cfi_offset %rbx, -56
	.cfi_offset %r12, -48
	.cfi_offset %r13, -40
	.cfi_offset %r14, -32
	.cfi_offset %r15, -24
	.cfi_offset %rbp, -16
	movq	%rdx, 24(%rsp)                  # 8-byte Spill
	movq	%rsi, %r15
	movq	%rdi, 48(%rsp)                  # 8-byte Spill
	movq	40(%rsi), %rax
	movabsq	$-7488770571603291722, %rcx     # imm = 0x98128AD7A32FD1B6
	imulq	8(%rsi), %rcx
	movq	%rcx, %rsi
	shrq	$32, %rsi
	xorq	%rcx, %rsi
	andq	16(%r15), %rsi
	movslq	(%rax,%rsi,4), %rax
	movq	%rax, 16(%rsp)                  # 8-byte Spill
	movq	(%r15,%rax,8), %rax
	leaq	152(%rsp), %rdi
	movq	%rdx, %rsi
	callq	*(%rax)
	movslq	176(%rsp), %r13
	movq	168(%rsp), %rbp
	movq	152(%rsp), %r12
	movq	160(%rsp), %rbx
	leaq	8(%rsp), %r14
	movq	%r12, %rdi
	movq	%rbx, %rsi
	movq	%rbp, %rdx
	movl	%r13d, %ecx
	movq	%r14, %r8
	callq	*80(%r12,%r13,8)
	leaq	216(%rsp), %rdi
	movq	%r12, %rsi
	movq	%rbx, %rdx
	movq	%rbp, %rcx
	movl	%r13d, %r8d
	movq	%r12, %r9
	pushq	%r14
	.cfi_adjust_cfa_offset 8
	pushq	%r13
	.cfi_adjust_cfa_offset 8
	pushq	%rbp
	.cfi_adjust_cfa_offset 8
	pushq	%rbx
	.cfi_adjust_cfa_offset 8
	callq	*%rax
	addq	$32, %rsp
	.cfi_adjust_cfa_offset -32
	movq	16(%rsp), %r14                  # 8-byte Reload
	movq	8(%r15,%r14,8), %rax
	movq	24(%rsp), %rbx                  # 8-byte Reload
	movq	%rbx, %rdi
	callq	*(%rax)
	movq	%fs:0, %rax
	leaq	current_ptr@TPOFF(%rax), %rsi
	movl	$40, %edi
	callq	bump_malloc_inner@PLT
	movq	MapIterator@GOTPCREL(%rip), %rcx
	movq	%rcx, 56(%rsp)
	movq	%rax, 64(%rsp)
	movl	$9, 80(%rsp)
	movq	(%r15,%r14,8), %rax
	leaq	120(%rsp), %rdi
	movq	%rbx, %rsi
	callq	*(%rax)
	movslq	144(%rsp), %rbx
	movq	136(%rsp), %r12
	movq	120(%rsp), %r13
	movq	128(%rsp), %rbp
	movq	%r13, %rdi
	movq	%rbp, %rsi
	movq	%r12, %rdx
	movl	%ebx, %ecx
	leaq	8(%rsp), %r14
	movq	%r14, %r8
	callq	*80(%r13,%rbx,8)
	leaq	184(%rsp), %rdi
	movq	%r13, %rsi
	movq	%rbp, %rdx
	movq	%r12, %rcx
	movl	%ebx, %r8d
	movq	%r13, %r9
	pushq	%r14
	.cfi_adjust_cfa_offset 8
	pushq	%rbx
	.cfi_adjust_cfa_offset 8
	pushq	%r12
	.cfi_adjust_cfa_offset 8
	pushq	%rbp
	.cfi_adjust_cfa_offset 8
	callq	*%rax
	addq	$32, %rsp
	.cfi_adjust_cfa_offset -32
	movq	200(%rsp), %rax
	movq	%rax, 40(%rsp)                  # 8-byte Spill
	movq	184(%rsp), %rbx
	movq	192(%rsp), %rax
	movq	%rax, 32(%rsp)                  # 8-byte Spill
	movq	16(%rsp), %rax                  # 8-byte Reload
	movq	8(%r15,%rax,8), %rax
	movq	24(%rsp), %rdi                  # 8-byte Reload
	callq	*(%rax)
	movq	%rax, 16(%rsp)                  # 8-byte Spill
	movq	40(%rbx), %rax
	movabsq	$-933084275656658555, %rcx      # imm = 0xF30D04CB83FB7185
	imulq	8(%rbx), %rcx
	movq	%rcx, %rdx
	shrq	$32, %rdx
	xorq	%rcx, %rdx
	andq	16(%rbx), %rdx
	movl	(%rax,%rdx,4), %r13d
	movq	56(%rsp), %r14
	movq	64(%rsp), %r15
	movq	72(%rsp), %r12
	movslq	80(%rsp), %rbp
	movq	_parameterization_IntIterator@GOTPCREL(%rip), %rax
	movq	%rax, 104(%rsp)
	movq	_parameterization_FunctionPtri32_to_Ptri32@GOTPCREL(%rip), %rax
	movq	%rax, 112(%rsp)
	movq	16(%r14,%rbp,8), %rax
	movq	%rbx, 88(%rsp)
	movq	function_typ@GOTPCREL(%rip), %rcx
	movq	%rcx, 96(%rsp)
	leaq	88(%rsp), %r8
	movq	%r14, %rdi
	movq	%r15, %rsi
	movq	%r12, %rdx
	movl	%ebp, %ecx
	callq	*%rax
	leaq	104(%rsp), %r10
	movq	%r14, %rdi
	movq	%r15, %rsi
	movq	%r12, %rdx
	movl	%ebp, %ecx
	movq	%r14, %r8
	movq	%r15, %r9
	pushq	16(%rsp)                        # 8-byte Folded Reload
	.cfi_adjust_cfa_offset 8
	pushq	%r13
	.cfi_adjust_cfa_offset 8
	pushq	56(%rsp)                        # 8-byte Folded Reload
	.cfi_adjust_cfa_offset 8
	pushq	56(%rsp)                        # 8-byte Folded Reload
	.cfi_adjust_cfa_offset 8
	pushq	%rbx
	.cfi_adjust_cfa_offset 8
	pushq	%r10
	.cfi_adjust_cfa_offset 8
	pushq	%rbp
	.cfi_adjust_cfa_offset 8
	pushq	%r12
	.cfi_adjust_cfa_offset 8
	callq	*%rax
	addq	$64, %rsp
	.cfi_adjust_cfa_offset -64
	movq	40(%r14), %rax
	movabsq	$8673632051301757104, %rcx      # imm = 0x785EEE655248B0B0
	imulq	8(%r14), %rcx
	movq	%rcx, %rdx
	shrq	$32, %rdx
	xorq	%rcx, %rdx
	andq	16(%r14), %rdx
	movl	(%rax,%rdx,4), %ecx
	movq	48(%rsp), %rax                  # 8-byte Reload
	movq	%r12, 16(%rax)
	movq	%r15, 8(%rax)
	movq	%r14, (%rax)
	movl	%ecx, 24(%rax)
	addq	$248, %rsp
	.cfi_def_cfa_offset 56
	popq	%rbx
	.cfi_def_cfa_offset 48
	popq	%r12
	.cfi_def_cfa_offset 40
	popq	%r13
	.cfi_def_cfa_offset 32
	popq	%r14
	.cfi_def_cfa_offset 24
	popq	%r15
	.cfi_def_cfa_offset 16
	popq	%rbp
	.cfi_def_cfa_offset 8
	retq
.Lfunc_end142:
	.size	MapIterable_iterator_, .Lfunc_end142-MapIterable_iterator_
	.cfi_endproc
                                        # -- End function
	.weak	_size_function_typ              # -- Begin function _size_function_typ
	.p2align	4, 0x90
	.type	_size_function_typ,@function
_size_function_typ:                     # @_size_function_typ
	.cfi_startproc
# %bb.0:
	movl	$8, %eax
	movl	$8, %edx
	retq
.Lfunc_end143:
	.size	_size_function_typ, .Lfunc_end143-_size_function_typ
	.cfi_endproc
                                        # -- End function
	.weak	_box_function_typ               # -- Begin function _box_function_typ
	.p2align	4, 0x90
	.type	_box_function_typ,@function
_box_function_typ:                      # @_box_function_typ
	.cfi_startproc
# %bb.0:
	movq	%rdi, %rax
	movq	(%rsi), %rcx
	movq	function_typ@GOTPCREL(%rip), %rdx
	movq	%rcx, 16(%rdi)
	movq	%rdx, (%rdi)
	movq	$0, 24(%rdi)
	movl	$0, 32(%rdi)
	retq
.Lfunc_end144:
	.size	_box_function_typ, .Lfunc_end144-_box_function_typ
	.cfi_endproc
                                        # -- End function
	.weak	_unbox_function_typ             # -- Begin function _unbox_function_typ
	.p2align	4, 0x90
	.type	_unbox_function_typ,@function
_unbox_function_typ:                    # @_unbox_function_typ
	.cfi_startproc
# %bb.0:
	movq	%rsi, (%r9)
	retq
.Lfunc_end145:
	.size	_unbox_function_typ, .Lfunc_end145-_unbox_function_typ
	.cfi_endproc
                                        # -- End function
	.globl	_size_MapIterator               # -- Begin function _size_MapIterator
	.p2align	4, 0x90
	.type	_size_MapIterator,@function
_size_MapIterator:                      # @_size_MapIterator
# %bb.0:
	movl	$40, %eax
	movl	$8, %edx
	retq
.Lfunc_end146:
	.size	_size_MapIterator, .Lfunc_end146-_size_MapIterator
                                        # -- End function
	.globl	MapIterator_B_init_iteratorIntIterator_fFunctionPtri32_to_Ptri32 # -- Begin function MapIterator_B_init_iteratorIntIterator_fFunctionPtri32_to_Ptri32
	.p2align	4, 0x90
	.type	MapIterator_B_init_iteratorIntIterator_fFunctionPtri32_to_Ptri32,@function
MapIterator_B_init_iteratorIntIterator_fFunctionPtri32_to_Ptri32: # @MapIterator_B_init_iteratorIntIterator_fFunctionPtri32_to_Ptri32
# %bb.0:
	movq	104(%rdi), %rax
	retq
.Lfunc_end147:
	.size	MapIterator_B_init_iteratorIntIterator_fFunctionPtri32_to_Ptri32, .Lfunc_end147-MapIterator_B_init_iteratorIntIterator_fFunctionPtri32_to_Ptri32
                                        # -- End function
	.globl	MapIterator_B_next_             # -- Begin function MapIterator_B_next_
	.p2align	4, 0x90
	.type	MapIterator_B_next_,@function
MapIterator_B_next_:                    # @MapIterator_B_next_
# %bb.0:
	movq	112(%rdi), %rax
	retq
.Lfunc_end148:
	.size	MapIterator_B_next_, .Lfunc_end148-MapIterator_B_next_
                                        # -- End function
	.globl	MapIterator_init_iteratorIntIterator_fFunctionPtri32_to_Ptri32 # -- Begin function MapIterator_init_iteratorIntIterator_fFunctionPtri32_to_Ptri32
	.p2align	4, 0x90
	.type	MapIterator_init_iteratorIntIterator_fFunctionPtri32_to_Ptri32,@function
MapIterator_init_iteratorIntIterator_fFunctionPtri32_to_Ptri32: # @MapIterator_init_iteratorIntIterator_fFunctionPtri32_to_Ptri32
	.cfi_startproc
# %bb.0:
	pushq	%r15
	.cfi_def_cfa_offset 16
	pushq	%r14
	.cfi_def_cfa_offset 24
	pushq	%r12
	.cfi_def_cfa_offset 32
	pushq	%rbx
	.cfi_def_cfa_offset 40
	pushq	%rax
	.cfi_def_cfa_offset 48
	.cfi_offset %rbx, -40
	.cfi_offset %r12, -32
	.cfi_offset %r14, -24
	.cfi_offset %r15, -16
	movq	%rsi, %rbx
	movq	%rdi, %r15
	movq	104(%rsp), %r14
	movq	80(%rsp), %rdx
	movq	88(%rsp), %rcx
	movq	72(%rsp), %rsi
	movq	40(%rdi), %rax
	movabsq	$-146553482626734782, %rdi      # imm = 0xFDF756624F6FE542
	imulq	8(%r15), %rdi
	movq	%rdi, %r8
	shrq	$32, %r8
	xorq	%rdi, %r8
	andq	16(%r15), %r8
	movslq	(%rax,%r8,4), %r12
	movq	40(%rsi), %rax
	movabsq	$-933084275656658555, %rdi      # imm = 0xF30D04CB83FB7185
	imulq	8(%rsi), %rdi
	movq	%rdi, %r8
	shrq	$32, %r8
	xorq	%rdi, %r8
	andq	16(%rsi), %r8
	movl	(%rax,%r8,4), %r8d
	movq	(%r15,%r12,8), %rax
	movq	%rbx, %rdi
	callq	*8(%rax)
	movq	8(%r15,%r12,8), %rax
	movq	8(%rax), %rax
	movq	%rbx, %rdi
	movq	%r14, %rsi
	addq	$8, %rsp
	.cfi_def_cfa_offset 40
	popq	%rbx
	.cfi_def_cfa_offset 32
	popq	%r12
	.cfi_def_cfa_offset 24
	popq	%r14
	.cfi_def_cfa_offset 16
	popq	%r15
	.cfi_def_cfa_offset 8
	jmpq	*%rax                           # TAILCALL
.Lfunc_end149:
	.size	MapIterator_init_iteratorIntIterator_fFunctionPtri32_to_Ptri32, .Lfunc_end149-MapIterator_init_iteratorIntIterator_fFunctionPtri32_to_Ptri32
	.cfi_endproc
                                        # -- End function
	.globl	MapIterator_next_               # -- Begin function MapIterator_next_
	.p2align	4, 0x90
	.type	MapIterator_next_,@function
MapIterator_next_:                      # @MapIterator_next_
	.cfi_startproc
# %bb.0:
	pushq	%rbp
	.cfi_def_cfa_offset 16
	pushq	%r15
	.cfi_def_cfa_offset 24
	pushq	%r14
	.cfi_def_cfa_offset 32
	pushq	%r13
	.cfi_def_cfa_offset 40
	pushq	%r12
	.cfi_def_cfa_offset 48
	pushq	%rbx
	.cfi_def_cfa_offset 56
	subq	$56, %rsp
	.cfi_def_cfa_offset 112
	.cfi_offset %rbx, -56
	.cfi_offset %r12, -48
	.cfi_offset %r13, -40
	.cfi_offset %r14, -32
	.cfi_offset %r15, -24
	.cfi_offset %rbp, -16
	movq	%rdi, %r14
	movq	40(%rdi), %rax
	movabsq	$-146553482626734782, %rcx      # imm = 0xFDF756624F6FE542
	imulq	8(%rdi), %rcx
	movq	%rcx, %rdx
	shrq	$32, %rdx
	xorq	%rcx, %rdx
	andq	16(%rdi), %rdx
	movslq	(%rax,%rdx,4), %rax
	movq	%rax, 8(%rsp)                   # 8-byte Spill
	movq	(%rdi,%rax,8), %rax
	leaq	24(%rsp), %rdi
	movq	%rsi, 16(%rsp)                  # 8-byte Spill
	callq	*(%rax)
	movslq	48(%rsp), %r15
	movq	40(%rsp), %r12
	movq	24(%rsp), %r13
	movq	32(%rsp), %rbp
	movq	%rsp, %rbx
	movq	%r13, %rdi
	movq	%rbp, %rsi
	movq	%r12, %rdx
	movl	%r15d, %ecx
	movq	%rbx, %r8
	callq	*(%r13,%r15,8)
	subq	$8, %rsp
	.cfi_adjust_cfa_offset 8
	movq	%r13, %rdi
	movq	%rbp, %rsi
	movq	%r12, %rdx
	movl	%r15d, %ecx
	movq	%r13, %r8
	movq	%rbp, %r9
	pushq	%rbx
	.cfi_adjust_cfa_offset 8
	pushq	%r15
	.cfi_adjust_cfa_offset 8
	pushq	%r12
	.cfi_adjust_cfa_offset 8
	callq	*%rax
	addq	$32, %rsp
	.cfi_adjust_cfa_offset -32
	movq	%rax, %rcx
	movl	%edx, %ebp
	movq	nil_typ@GOTPCREL(%rip), %rax
	cmpq	%rax, %rcx
	sete	%dl
	testq	%rcx, %rcx
	sete	%cl
	orb	%dl, %cl
                                        # implicit-def: $edx
	jne	.LBB150_2
# %bb.1:
	movq	8(%rsp), %rax                   # 8-byte Reload
	movq	8(%r14,%rax,8), %rax
	movq	16(%rsp), %rdi                  # 8-byte Reload
	callq	*(%rax)
	movl	%ebp, %edi
	callq	*%rax
	movl	%eax, %edx
	movq	i32_typ@GOTPCREL(%rip), %rax
.LBB150_2:
	addq	$56, %rsp
	.cfi_def_cfa_offset 56
	popq	%rbx
	.cfi_def_cfa_offset 48
	popq	%r12
	.cfi_def_cfa_offset 40
	popq	%r13
	.cfi_def_cfa_offset 32
	popq	%r14
	.cfi_def_cfa_offset 24
	popq	%r15
	.cfi_def_cfa_offset 16
	popq	%rbp
	.cfi_def_cfa_offset 8
	retq
.Lfunc_end150:
	.size	MapIterator_next_, .Lfunc_end150-MapIterator_next_
	.cfi_endproc
                                        # -- End function
	.globl	MapIterator_getter_f            # -- Begin function MapIterator_getter_f
	.p2align	4, 0x90
	.type	MapIterator_getter_f,@function
MapIterator_getter_f:                   # @MapIterator_getter_f
# %bb.0:
	movq	32(%rdi), %rax
	retq
.Lfunc_end151:
	.size	MapIterator_getter_f, .Lfunc_end151-MapIterator_getter_f
                                        # -- End function
	.globl	MapIterator_setter_f            # -- Begin function MapIterator_setter_f
	.p2align	4, 0x90
	.type	MapIterator_setter_f,@function
MapIterator_setter_f:                   # @MapIterator_setter_f
# %bb.0:
	movq	%rsi, 32(%rdi)
	retq
.Lfunc_end152:
	.size	MapIterator_setter_f, .Lfunc_end152-MapIterator_setter_f
                                        # -- End function
	.globl	MapIterator_getter_iterator     # -- Begin function MapIterator_getter_iterator
	.p2align	4, 0x90
	.type	MapIterator_getter_iterator,@function
MapIterator_getter_iterator:            # @MapIterator_getter_iterator
# %bb.0:
	movq	%rdi, %rax
	movq	(%rsi), %rcx
	movq	8(%rsi), %rdx
	movq	16(%rsi), %rdi
	movl	24(%rsi), %esi
	movl	%esi, 24(%rax)
	movq	%rdi, 16(%rax)
	movq	%rdx, 8(%rax)
	movq	%rcx, (%rax)
	retq
.Lfunc_end153:
	.size	MapIterator_getter_iterator, .Lfunc_end153-MapIterator_getter_iterator
                                        # -- End function
	.globl	MapIterator_setter_iterator     # -- Begin function MapIterator_setter_iterator
	.p2align	4, 0x90
	.type	MapIterator_setter_iterator,@function
MapIterator_setter_iterator:            # @MapIterator_setter_iterator
# %bb.0:
	movq	%rsi, (%rdi)
	movq	%rdx, 8(%rdi)
	movq	%rcx, 16(%rdi)
	movl	%r8d, 24(%rdi)
	retq
.Lfunc_end154:
	.size	MapIterator_setter_iterator, .Lfunc_end154-MapIterator_setter_iterator
                                        # -- End function
	.globl	_size_ProductIterable           # -- Begin function _size_ProductIterable
	.p2align	4, 0x90
	.type	_size_ProductIterable,@function
_size_ProductIterable:                  # @_size_ProductIterable
# %bb.0:
	movl	$64, %eax
	movl	$8, %edx
	retq
.Lfunc_end155:
	.size	_size_ProductIterable, .Lfunc_end155-_size_ProductIterable
                                        # -- End function
	.globl	ProductIterable_B_init_firstIntIterable_secondIntIterable # -- Begin function ProductIterable_B_init_firstIntIterable_secondIntIterable
	.p2align	4, 0x90
	.type	ProductIterable_B_init_firstIntIterable_secondIntIterable,@function
ProductIterable_B_init_firstIntIterable_secondIntIterable: # @ProductIterable_B_init_firstIntIterable_secondIntIterable
# %bb.0:
	movq	104(%rdi), %rax
	retq
.Lfunc_end156:
	.size	ProductIterable_B_init_firstIntIterable_secondIntIterable, .Lfunc_end156-ProductIterable_B_init_firstIntIterable_secondIntIterable
                                        # -- End function
	.globl	ProductIterable_B_iterator_     # -- Begin function ProductIterable_B_iterator_
	.p2align	4, 0x90
	.type	ProductIterable_B_iterator_,@function
ProductIterable_B_iterator_:            # @ProductIterable_B_iterator_
# %bb.0:
	movq	112(%rdi), %rax
	retq
.Lfunc_end157:
	.size	ProductIterable_B_iterator_, .Lfunc_end157-ProductIterable_B_iterator_
                                        # -- End function
	.globl	ProductIterable_init_firstIntIterable_secondIntIterable # -- Begin function ProductIterable_init_firstIntIterable_secondIntIterable
	.p2align	4, 0x90
	.type	ProductIterable_init_firstIntIterable_secondIntIterable,@function
ProductIterable_init_firstIntIterable_secondIntIterable: # @ProductIterable_init_firstIntIterable_secondIntIterable
	.cfi_startproc
# %bb.0:
	pushq	%rbp
	.cfi_def_cfa_offset 16
	pushq	%r15
	.cfi_def_cfa_offset 24
	pushq	%r14
	.cfi_def_cfa_offset 32
	pushq	%r13
	.cfi_def_cfa_offset 40
	pushq	%r12
	.cfi_def_cfa_offset 48
	pushq	%rbx
	.cfi_def_cfa_offset 56
	pushq	%rax
	.cfi_def_cfa_offset 64
	.cfi_offset %rbx, -56
	.cfi_offset %r12, -48
	.cfi_offset %r13, -40
	.cfi_offset %r14, -32
	.cfi_offset %r15, -24
	.cfi_offset %rbp, -16
	movq	%rsi, %rbx
	movq	%rdi, %r12
	movq	128(%rsp), %rax
	movq	%rax, (%rsp)                    # 8-byte Spill
	movq	136(%rsp), %r15
	movq	120(%rsp), %r13
	movq	96(%rsp), %rdx
	movq	104(%rsp), %rcx
	movq	88(%rsp), %rsi
	movq	40(%rdi), %rax
	movabsq	$4128338911757318636, %rdi      # imm = 0x394ACE5E0BB7B9EC
	imulq	8(%r12), %rdi
	movq	%rdi, %r8
	shrq	$32, %r8
	xorq	%rdi, %r8
	andq	16(%r12), %r8
	movslq	(%rax,%r8,4), %rbp
	movq	40(%rsi), %rax
	movabsq	$-7984962120415158575, %r14     # imm = 0x912FB741F3B45ED1
	movq	8(%rsi), %rdi
	imulq	%r14, %rdi
	movq	%rdi, %r8
	shrq	$32, %r8
	xorq	%rdi, %r8
	andq	16(%rsi), %r8
	movl	(%rax,%r8,4), %r8d
	movq	(%r12,%rbp,8), %rax
	movq	%rbx, %rdi
	callq	*8(%rax)
	movq	40(%r13), %rax
	imulq	8(%r13), %r14
	movq	%r14, %rcx
	shrq	$32, %rcx
	xorq	%r14, %rcx
	andq	16(%r13), %rcx
	movl	(%rax,%rcx,4), %r8d
	movq	8(%r12,%rbp,8), %rax
	movq	8(%rax), %rax
	movq	%rbx, %rdi
	movq	%r13, %rsi
	movq	(%rsp), %rdx                    # 8-byte Reload
	movq	%r15, %rcx
	addq	$8, %rsp
	.cfi_def_cfa_offset 56
	popq	%rbx
	.cfi_def_cfa_offset 48
	popq	%r12
	.cfi_def_cfa_offset 40
	popq	%r13
	.cfi_def_cfa_offset 32
	popq	%r14
	.cfi_def_cfa_offset 24
	popq	%r15
	.cfi_def_cfa_offset 16
	popq	%rbp
	.cfi_def_cfa_offset 8
	jmpq	*%rax                           # TAILCALL
.Lfunc_end158:
	.size	ProductIterable_init_firstIntIterable_secondIntIterable, .Lfunc_end158-ProductIterable_init_firstIntIterable_secondIntIterable
	.cfi_endproc
                                        # -- End function
	.globl	ProductIterable_iterator_       # -- Begin function ProductIterable_iterator_
	.p2align	4, 0x90
	.type	ProductIterable_iterator_,@function
ProductIterable_iterator_:              # @ProductIterable_iterator_
	.cfi_startproc
# %bb.0:
	pushq	%rbp
	.cfi_def_cfa_offset 16
	pushq	%r15
	.cfi_def_cfa_offset 24
	pushq	%r14
	.cfi_def_cfa_offset 32
	pushq	%r13
	.cfi_def_cfa_offset 40
	pushq	%r12
	.cfi_def_cfa_offset 48
	pushq	%rbx
	.cfi_def_cfa_offset 56
	subq	$216, %rsp
	.cfi_def_cfa_offset 272
	.cfi_offset %rbx, -56
	.cfi_offset %r12, -48
	.cfi_offset %r13, -40
	.cfi_offset %r14, -32
	.cfi_offset %r15, -24
	.cfi_offset %rbp, -16
	movq	%rdx, %r15
	movq	%rsi, %rbx
	movq	%rdi, 16(%rsp)                  # 8-byte Spill
	movq	40(%rsi), %rax
	movabsq	$4128338911757318636, %rcx      # imm = 0x394ACE5E0BB7B9EC
	imulq	8(%rsi), %rcx
	movq	%rcx, %rdx
	shrq	$32, %rdx
	xorq	%rcx, %rdx
	andq	16(%rsi), %rdx
	movslq	(%rax,%rdx,4), %r12
	movq	(%rsi,%r12,8), %rax
	leaq	184(%rsp), %rdi
	movq	%r15, %rsi
	callq	*(%rax)
	movq	8(%rbx,%r12,8), %rax
	leaq	152(%rsp), %rdi
	movq	%r15, %rsi
	callq	*(%rax)
	movq	%fs:0, %rax
	leaq	current_ptr@TPOFF(%rax), %rsi
	movl	$112, %edi
	callq	bump_malloc_inner@PLT
	movq	%rax, %r14
	movq	(%rbx,%r12,8), %rax
	leaq	120(%rsp), %rdi
	movq	%r15, %rsi
	callq	*(%rax)
	movq	136(%rsp), %rax
	movq	%rax, 8(%rsp)                   # 8-byte Spill
	movq	120(%rsp), %rbp
	movq	128(%rsp), %r13
	movq	8(%rbx,%r12,8), %rax
	leaq	24(%rsp), %rdi
	movq	%r15, %rsi
	callq	*(%rax)
	movl	48(%rsp), %eax
	movq	40(%rsp), %rcx
	movq	24(%rsp), %rdx
	movq	32(%rsp), %rsi
	movq	40(%rbp), %rdi
	movabsq	$-7984962120415158575, %r8      # imm = 0x912FB741F3B45ED1
	imulq	8(%rbp), %r8
	movq	%r8, %r9
	shrq	$32, %r9
	xorq	%r8, %r9
	andq	16(%rbp), %r9
	movslq	(%rdi,%r9,4), %rbx
	movq	%rdx, 64(%r14)
	movq	%rsi, 72(%r14)
	movq	%rcx, 80(%r14)
	movl	%eax, 88(%r14)
	movq	%rsp, %r8
	movq	%rbp, %rdi
	movq	%r13, %rsi
	movq	8(%rsp), %r12                   # 8-byte Reload
	movq	%r12, %rdx
	movl	%ebx, %ecx
	movq	%r8, %r15
	callq	*80(%rbp,%rbx,8)
	leaq	88(%rsp), %rdi
	movq	%rbp, %rsi
	movq	%r13, %rdx
	movq	%r12, %rcx
	movl	%ebx, %r8d
	movq	%rbp, %r9
	pushq	%r15
	.cfi_adjust_cfa_offset 8
	pushq	%rbx
	.cfi_adjust_cfa_offset 8
	pushq	%r12
	.cfi_adjust_cfa_offset 8
	pushq	%r13
	.cfi_adjust_cfa_offset 8
	callq	*%rax
	addq	$32, %rsp
	.cfi_adjust_cfa_offset -32
	movq	104(%rsp), %rax
	movq	88(%rsp), %rcx
	movq	96(%rsp), %rdx
	movq	40(%rcx), %rsi
	movabsq	$-933084275656658555, %r15      # imm = 0xF30D04CB83FB7185
	movq	8(%rcx), %rdi
	imulq	%r15, %rdi
	movq	%rdi, %r8
	shrq	$32, %r8
	xorq	%rdi, %r8
	andq	16(%rcx), %r8
	movl	(%rsi,%r8,4), %esi
	movq	%rcx, (%r14)
	movq	%rdx, 8(%r14)
	movq	%rax, 16(%r14)
	movl	%esi, 24(%r14)
	movq	64(%r14), %rbx
	movq	72(%r14), %r12
	movq	80(%r14), %r13
	movslq	88(%r14), %rbp
	movq	%rbx, %rdi
	movq	%r12, %rsi
	movq	%r13, %rdx
	movl	%ebp, %ecx
	movq	%rsp, %r8
	callq	*80(%rbx,%rbp,8)
	leaq	56(%rsp), %rdi
	movq	%rbx, %rsi
	movq	%r12, %rdx
	movq	%r13, %rcx
	movl	%ebp, %r8d
	movq	%rbx, %r9
	movq	%rsp, %r10
	pushq	%r10
	.cfi_adjust_cfa_offset 8
	pushq	%rbp
	.cfi_adjust_cfa_offset 8
	pushq	%r13
	.cfi_adjust_cfa_offset 8
	pushq	%r12
	.cfi_adjust_cfa_offset 8
	callq	*%rax
	addq	$32, %rsp
	.cfi_adjust_cfa_offset -32
	movq	72(%rsp), %rax
	movq	56(%rsp), %rcx
	movq	64(%rsp), %rdx
	movq	40(%rcx), %rsi
	imulq	8(%rcx), %r15
	movq	%r15, %rdi
	shrq	$32, %rdi
	xorq	%r15, %rdi
	andq	16(%rcx), %rdi
	movl	(%rsi,%rdi,4), %esi
	movq	%rcx, 32(%r14)
	movq	%rdx, 40(%r14)
	movq	%rax, 48(%r14)
	movl	%esi, 56(%r14)
	movq	(%r14), %rbx
	movq	8(%r14), %r12
	movq	16(%r14), %r13
	movslq	24(%r14), %rbp
	movq	%rbx, %rdi
	movq	%r12, %rsi
	movq	%r13, %rdx
	movl	%ebp, %ecx
	movq	%rsp, %r15
	movq	%r15, %r8
	callq	*(%rbx,%rbp,8)
	subq	$8, %rsp
	.cfi_adjust_cfa_offset 8
	movq	%rbx, %rdi
	movq	%r12, %rsi
	movq	%r13, %rdx
	movl	%ebp, %ecx
	movq	%rbx, %r8
	movq	%r12, %r9
	pushq	%r15
	.cfi_adjust_cfa_offset 8
	pushq	%rbp
	.cfi_adjust_cfa_offset 8
	pushq	%r13
	.cfi_adjust_cfa_offset 8
	callq	*%rax
	addq	$32, %rsp
	.cfi_adjust_cfa_offset -32
	movq	%rax, 96(%r14)
	movl	%edx, 104(%r14)
	movq	16(%rsp), %rax                  # 8-byte Reload
	movq	%r14, 8(%rax)
	movq	ProductIterator@GOTPCREL(%rip), %rcx
	movq	%rcx, (%rax)
	movl	$17, 24(%rax)
	addq	$216, %rsp
	.cfi_def_cfa_offset 56
	popq	%rbx
	.cfi_def_cfa_offset 48
	popq	%r12
	.cfi_def_cfa_offset 40
	popq	%r13
	.cfi_def_cfa_offset 32
	popq	%r14
	.cfi_def_cfa_offset 24
	popq	%r15
	.cfi_def_cfa_offset 16
	popq	%rbp
	.cfi_def_cfa_offset 8
	retq
.Lfunc_end159:
	.size	ProductIterable_iterator_, .Lfunc_end159-ProductIterable_iterator_
	.cfi_endproc
                                        # -- End function
	.globl	_size_ProductIterator           # -- Begin function _size_ProductIterator
	.p2align	4, 0x90
	.type	_size_ProductIterator,@function
_size_ProductIterator:                  # @_size_ProductIterator
# %bb.0:
	movl	$112, %eax
	movl	$8, %edx
	retq
.Lfunc_end160:
	.size	_size_ProductIterator, .Lfunc_end160-_size_ProductIterator
                                        # -- End function
	.globl	ProductIterator_B_init_first_iterableIntIterable_second_iterableIntIterable # -- Begin function ProductIterator_B_init_first_iterableIntIterable_second_iterableIntIterable
	.p2align	4, 0x90
	.type	ProductIterator_B_init_first_iterableIntIterable_second_iterableIntIterable,@function
ProductIterator_B_init_first_iterableIntIterable_second_iterableIntIterable: # @ProductIterator_B_init_first_iterableIntIterable_second_iterableIntIterable
# %bb.0:
	movq	120(%rdi), %rax
	retq
.Lfunc_end161:
	.size	ProductIterator_B_init_first_iterableIntIterable_second_iterableIntIterable, .Lfunc_end161-ProductIterator_B_init_first_iterableIntIterable_second_iterableIntIterable
                                        # -- End function
	.globl	ProductIterator_B_next_         # -- Begin function ProductIterator_B_next_
	.p2align	4, 0x90
	.type	ProductIterator_B_next_,@function
ProductIterator_B_next_:                # @ProductIterator_B_next_
# %bb.0:
	movq	128(%rdi), %rax
	retq
.Lfunc_end162:
	.size	ProductIterator_B_next_, .Lfunc_end162-ProductIterator_B_next_
                                        # -- End function
	.globl	ProductIterator_init_first_iterableIntIterable_second_iterableIntIterable # -- Begin function ProductIterator_init_first_iterableIntIterable_second_iterableIntIterable
	.p2align	4, 0x90
	.type	ProductIterator_init_first_iterableIntIterable_second_iterableIntIterable,@function
ProductIterator_init_first_iterableIntIterable_second_iterableIntIterable: # @ProductIterator_init_first_iterableIntIterable_second_iterableIntIterable
	.cfi_startproc
# %bb.0:
	pushq	%rbp
	.cfi_def_cfa_offset 16
	pushq	%r15
	.cfi_def_cfa_offset 24
	pushq	%r14
	.cfi_def_cfa_offset 32
	pushq	%r13
	.cfi_def_cfa_offset 40
	pushq	%r12
	.cfi_def_cfa_offset 48
	pushq	%rbx
	.cfi_def_cfa_offset 56
	subq	$168, %rsp
	.cfi_def_cfa_offset 224
	.cfi_offset %rbx, -56
	.cfi_offset %r12, -48
	.cfi_offset %r13, -40
	.cfi_offset %r14, -32
	.cfi_offset %r15, -24
	.cfi_offset %rbp, -16
	movq	%rsi, %r10
	movq	%rsi, 16(%rsp)                  # 8-byte Spill
	movq	256(%rsp), %rbx
	movq	264(%rsp), %r15
	movq	288(%rsp), %rdx
	movq	296(%rsp), %rcx
	movq	280(%rsp), %rsi
	movq	248(%rsp), %rbp
	movq	40(%rdi), %rax
	movabsq	$1697250377212095568, %r9       # imm = 0x178DD839C49FEC50
	imulq	8(%rdi), %r9
	movq	%r9, %r8
	shrq	$32, %r8
	xorq	%r9, %r8
	andq	16(%rdi), %r8
	movq	%rdi, %r14
	movslq	(%rax,%r8,4), %r13
	movq	40(%rbp), %rax
	movabsq	$-7984962120415158575, %rdi     # imm = 0x912FB741F3B45ED1
	movq	8(%rbp), %r8
	imulq	%rdi, %r8
	movq	%r8, %r9
	shrq	$32, %r9
	xorq	%r8, %r9
	andq	16(%rbp), %r9
	movslq	(%rax,%r9,4), %r12
	movq	40(%rsi), %rax
	imulq	8(%rsi), %rdi
	movq	%rdi, %r8
	shrq	$32, %r8
	xorq	%rdi, %r8
	andq	16(%rsi), %r8
	movl	(%rax,%r8,4), %r8d
	movq	16(%r14,%r13,8), %rax
	movq	%r10, %rdi
	callq	*8(%rax)
	leaq	8(%rsp), %r8
	movq	%rbp, %rdi
	movq	%rbx, %rsi
	movq	%r15, %rdx
	movl	%r12d, %ecx
	movq	%r8, %rbx
	callq	*80(%rbp,%r12,8)
	leaq	136(%rsp), %rdi
	movq	%rbp, %rsi
	movq	256(%rsp), %rdx
	movq	%r15, %rcx
	movl	%r12d, %r8d
	movq	%rbp, %r9
	pushq	%rbx
	.cfi_adjust_cfa_offset 8
	pushq	%r12
	.cfi_adjust_cfa_offset 8
	pushq	%r15
	.cfi_adjust_cfa_offset 8
	pushq	%rdx
	.cfi_adjust_cfa_offset 8
	callq	*%rax
	addq	$32, %rsp
	.cfi_adjust_cfa_offset -32
	movq	152(%rsp), %rcx
	movq	136(%rsp), %rsi
	movq	144(%rsp), %rdx
	movq	40(%rsi), %rax
	movabsq	$-933084275656658555, %rbx      # imm = 0xF30D04CB83FB7185
	movq	8(%rsi), %rdi
	imulq	%rbx, %rdi
	movq	%rdi, %r8
	shrq	$32, %r8
	xorq	%rdi, %r8
	andq	16(%rsi), %r8
	movl	(%rax,%r8,4), %r8d
	movq	%r13, 24(%rsp)                  # 8-byte Spill
	movq	%r14, 32(%rsp)                  # 8-byte Spill
	movq	(%r14,%r13,8), %rax
	movq	16(%rsp), %r15                  # 8-byte Reload
	movq	%r15, %rdi
	callq	*8(%rax)
	movq	16(%r14,%r13,8), %rax
	leaq	72(%rsp), %rdi
	movq	%r15, %rsi
	callq	*(%rax)
	movslq	96(%rsp), %r12
	movq	88(%rsp), %r13
	movq	72(%rsp), %rbp
	movq	80(%rsp), %r15
	movq	%rbp, %rdi
	movq	%r15, %rsi
	movq	%r13, %rdx
	movl	%r12d, %ecx
	leaq	8(%rsp), %r14
	movq	%r14, %r8
	callq	*80(%rbp,%r12,8)
	leaq	104(%rsp), %rdi
	movq	%rbp, %rsi
	movq	%r15, %rdx
	movq	%r13, %rcx
	movl	%r12d, %r8d
	movq	%rbp, %r9
	pushq	%r14
	.cfi_adjust_cfa_offset 8
	pushq	%r12
	.cfi_adjust_cfa_offset 8
	pushq	%r13
	.cfi_adjust_cfa_offset 8
	pushq	%r15
	.cfi_adjust_cfa_offset 8
	callq	*%rax
	addq	$32, %rsp
	.cfi_adjust_cfa_offset -32
	movq	120(%rsp), %rcx
	movq	104(%rsp), %rsi
	movq	112(%rsp), %rdx
	movq	40(%rsi), %rax
	imulq	8(%rsi), %rbx
	movq	%rbx, %rdi
	shrq	$32, %rdi
	xorq	%rbx, %rdi
	andq	16(%rsi), %rdi
	movl	(%rax,%rdi,4), %r8d
	movq	24(%rsp), %r15                  # 8-byte Reload
	movq	32(%rsp), %r14                  # 8-byte Reload
	movq	8(%r14,%r15,8), %rax
	movq	16(%rsp), %rbx                  # 8-byte Reload
	movq	%rbx, %rdi
	callq	*8(%rax)
	movq	(%r14,%r15,8), %rax
	leaq	40(%rsp), %rdi
	movq	%rbx, %rsi
	movq	%rbx, %r14
	callq	*(%rax)
	movslq	64(%rsp), %r15
	movq	56(%rsp), %r12
	movq	40(%rsp), %r13
	movq	48(%rsp), %rbp
	movq	%r13, %rdi
	movq	%rbp, %rsi
	movq	%r12, %rdx
	movl	%r15d, %ecx
	leaq	8(%rsp), %rbx
	movq	%rbx, %r8
	callq	*(%r13,%r15,8)
	subq	$8, %rsp
	.cfi_adjust_cfa_offset 8
	movq	%r13, %rdi
	movq	%rbp, %rsi
	movq	%r12, %rdx
	movl	%r15d, %ecx
	movq	%r13, %r8
	movq	%rbp, %r9
	pushq	%rbx
	.cfi_adjust_cfa_offset 8
	pushq	%r15
	.cfi_adjust_cfa_offset 8
	pushq	%r12
	.cfi_adjust_cfa_offset 8
	callq	*%rax
	addq	$32, %rsp
	.cfi_adjust_cfa_offset -32
	movq	32(%rsp), %rcx                  # 8-byte Reload
	movq	24(%rsp), %rsi                  # 8-byte Reload
	movq	24(%rcx,%rsi,8), %rcx
	movq	%r14, %rdi
	movq	%rax, %rsi
	callq	*8(%rcx)
	addq	$168, %rsp
	.cfi_def_cfa_offset 56
	popq	%rbx
	.cfi_def_cfa_offset 48
	popq	%r12
	.cfi_def_cfa_offset 40
	popq	%r13
	.cfi_def_cfa_offset 32
	popq	%r14
	.cfi_def_cfa_offset 24
	popq	%r15
	.cfi_def_cfa_offset 16
	popq	%rbp
	.cfi_def_cfa_offset 8
	retq
.Lfunc_end163:
	.size	ProductIterator_init_first_iterableIntIterable_second_iterableIntIterable, .Lfunc_end163-ProductIterator_init_first_iterableIntIterable_second_iterableIntIterable
	.cfi_endproc
                                        # -- End function
	.globl	ProductIterator_next_           # -- Begin function ProductIterator_next_
	.p2align	4, 0x90
	.type	ProductIterator_next_,@function
ProductIterator_next_:                  # @ProductIterator_next_
	.cfi_startproc
# %bb.0:
	pushq	%rbp
	.cfi_def_cfa_offset 16
	pushq	%r15
	.cfi_def_cfa_offset 24
	pushq	%r14
	.cfi_def_cfa_offset 32
	pushq	%r13
	.cfi_def_cfa_offset 40
	pushq	%r12
	.cfi_def_cfa_offset 48
	pushq	%rbx
	.cfi_def_cfa_offset 56
	subq	$168, %rsp
	.cfi_def_cfa_offset 224
	.cfi_offset %rbx, -56
	.cfi_offset %r12, -48
	.cfi_offset %r13, -40
	.cfi_offset %r14, -32
	.cfi_offset %r15, -24
	.cfi_offset %rbp, -16
	movq	40(%rdi), %rax
	movabsq	$1697250377212095568, %rcx      # imm = 0x178DD839C49FEC50
	imulq	8(%rdi), %rcx
	movq	%rcx, %rdx
	shrq	$32, %rdx
	xorq	%rcx, %rdx
	andq	16(%rdi), %rdx
	movslq	(%rax,%rdx,4), %r15
	movq	%rdi, %r14
	movq	24(%rdi,%r15,8), %rax
	movq	%rsi, %r13
	movq	%rsi, %rdi
	callq	*(%rax)
	movl	%edx, %edi
	movq	nil_typ@GOTPCREL(%rip), %rsi
	cmpq	%rsi, %rax
	sete	%cl
	testq	%rax, %rax
	sete	%al
	orb	%cl, %al
                                        # implicit-def: $rdx
	jne	.LBB164_8
# %bb.1:                                # %.lr.ph
	movq	%rsp, %rbp
	movl	%edi, %edx
	movq	%r13, 16(%rsp)                  # 8-byte Spill
	movq	%r14, 8(%rsp)                   # 8-byte Spill
	movq	%r15, 32(%rsp)                  # 8-byte Spill
	.p2align	4, 0x90
.LBB164_2:                              # =>This Inner Loop Header: Depth=1
	movl	%edx, 28(%rsp)                  # 4-byte Spill
	movq	8(%r14,%r15,8), %rax
	leaq	104(%rsp), %rdi
	movq	%r13, %rsi
	callq	*(%rax)
	movslq	128(%rsp), %r12
	movq	120(%rsp), %r15
	movq	104(%rsp), %r13
	movq	112(%rsp), %rbx
	movq	%r13, %rdi
	movq	%rbx, %rsi
	movq	%r15, %rdx
	movl	%r12d, %ecx
	movq	%rbp, %r8
	callq	*(%r13,%r12,8)
	subq	$8, %rsp
	.cfi_adjust_cfa_offset 8
	movq	%r13, %rdi
	movq	%rbx, %rsi
	movq	%r15, %rdx
	movl	%r12d, %ecx
	movq	%r13, %r8
	movq	%rbx, %r9
	pushq	%rbp
	.cfi_adjust_cfa_offset 8
	pushq	%r12
	.cfi_adjust_cfa_offset 8
	pushq	%r15
	.cfi_adjust_cfa_offset 8
	callq	*%rax
	addq	$32, %rsp
	.cfi_adjust_cfa_offset -32
	movl	%edx, %ecx
	cmpq	nil_typ@GOTPCREL(%rip), %rax
	setne	%dl
	testq	%rax, %rax
	setne	%al
	testb	%al, %dl
	jne	.LBB164_6
# %bb.3:                                #   in Loop: Header=BB164_2 Depth=1
	movq	32(%rsp), %r14                  # 8-byte Reload
	movq	8(%rsp), %rax                   # 8-byte Reload
	movq	(%rax,%r14,8), %rax
	leaq	72(%rsp), %rdi
	movq	16(%rsp), %rsi                  # 8-byte Reload
	callq	*(%rax)
	movslq	96(%rsp), %rbx
	movq	88(%rsp), %r15
	movq	72(%rsp), %r12
	movq	80(%rsp), %r13
	movq	%r12, %rdi
	movq	%r13, %rsi
	movq	%r15, %rdx
	movl	%ebx, %ecx
	movq	%rbp, %r8
	callq	*(%r12,%rbx,8)
	subq	$8, %rsp
	.cfi_adjust_cfa_offset 8
	movq	%r12, %rdi
	movq	%r13, %rsi
	movq	%r15, %rdx
	movl	%ebx, %ecx
	movq	%r12, %r8
	movq	%r13, %r9
	pushq	%rbp
	.cfi_adjust_cfa_offset 8
	pushq	%rbx
	.cfi_adjust_cfa_offset 8
	pushq	%r15
	.cfi_adjust_cfa_offset 8
	callq	*%rax
	addq	$32, %rsp
	.cfi_adjust_cfa_offset -32
	movq	8(%rsp), %r15                   # 8-byte Reload
	movq	24(%r15,%r14,8), %rcx
	movq	16(%rsp), %rbx                  # 8-byte Reload
	movq	%rbx, %rdi
	movq	%rax, %rsi
	callq	*8(%rcx)
	movq	16(%r15,%r14,8), %rax
	leaq	40(%rsp), %rdi
	movq	%rbx, %rsi
	callq	*(%rax)
	movslq	64(%rsp), %rbx
	movq	56(%rsp), %r15
	movq	40(%rsp), %r12
	movq	48(%rsp), %r13
	movq	%r12, %rdi
	movq	%r13, %rsi
	movq	%r15, %rdx
	movl	%ebx, %ecx
	movq	%rbp, %r8
	callq	*80(%r12,%rbx,8)
	leaq	136(%rsp), %rdi
	movq	%r12, %rsi
	movq	%r13, %rdx
	movq	%r15, %rcx
	movl	%ebx, %r8d
	movq	%r12, %r9
	pushq	%rbp
	.cfi_adjust_cfa_offset 8
	pushq	%rbx
	.cfi_adjust_cfa_offset 8
	pushq	%r15
	.cfi_adjust_cfa_offset 8
	pushq	%r13
	.cfi_adjust_cfa_offset 8
	callq	*%rax
	addq	$32, %rsp
	.cfi_adjust_cfa_offset -32
	movq	152(%rsp), %rcx
	movq	136(%rsp), %rsi
	movq	144(%rsp), %rdx
	movq	40(%rsi), %rax
	movq	8(%rsi), %rdi
	movabsq	$-933084275656658555, %r8       # imm = 0xF30D04CB83FB7185
	imulq	%r8, %rdi
	movq	%rdi, %r8
	shrq	$32, %r8
	xorq	%rdi, %r8
	andq	16(%rsi), %r8
	movl	(%rax,%r8,4), %r8d
	movq	8(%rsp), %rbx                   # 8-byte Reload
	movq	8(%rbx,%r14,8), %rax
	movq	16(%rsp), %r13                  # 8-byte Reload
	movq	%r13, %rdi
	callq	*8(%rax)
	movq	%r14, %r15
	movq	24(%rbx,%r14,8), %rax
	movq	%rbx, %r14
	movq	%r13, %rdi
	callq	*(%rax)
	movq	nil_typ@GOTPCREL(%rip), %rsi
	cmpq	%rsi, %rax
	je	.LBB164_7
# %bb.4:                                #   in Loop: Header=BB164_2 Depth=1
	testq	%rax, %rax
	jne	.LBB164_2
.LBB164_7:
                                        # implicit-def: $rdx
	jmp	.LBB164_8
.LBB164_6:
	shlq	$32, %rcx
	movl	28(%rsp), %edx                  # 4-byte Reload
	orq	%rcx, %rdx
	movq	tuple_typ@GOTPCREL(%rip), %rsi
.LBB164_8:                              # %.loopexit
	movq	%rsi, %rax
	addq	$168, %rsp
	.cfi_def_cfa_offset 56
	popq	%rbx
	.cfi_def_cfa_offset 48
	popq	%r12
	.cfi_def_cfa_offset 40
	popq	%r13
	.cfi_def_cfa_offset 32
	popq	%r14
	.cfi_def_cfa_offset 24
	popq	%r15
	.cfi_def_cfa_offset 16
	popq	%rbp
	.cfi_def_cfa_offset 8
	retq
.Lfunc_end164:
	.size	ProductIterator_next_, .Lfunc_end164-ProductIterator_next_
	.cfi_endproc
                                        # -- End function
	.weak	_box_tuple_typ                  # -- Begin function _box_tuple_typ
	.p2align	4, 0x90
	.type	_box_tuple_typ,@function
_box_tuple_typ:                         # @_box_tuple_typ
	.cfi_startproc
# %bb.0:
	pushq	%r15
	.cfi_def_cfa_offset 16
	pushq	%r14
	.cfi_def_cfa_offset 24
	pushq	%r13
	.cfi_def_cfa_offset 32
	pushq	%r12
	.cfi_def_cfa_offset 40
	pushq	%rbx
	.cfi_def_cfa_offset 48
	subq	$32, %rsp
	.cfi_def_cfa_offset 80
	.cfi_offset %rbx, -48
	.cfi_offset %r12, -40
	.cfi_offset %r13, -32
	.cfi_offset %r14, -24
	.cfi_offset %r15, -16
	movq	%rsi, %r14
	movq	%rdi, %rbx
	movq	8(%rdx), %rdi
	testq	%rdi, %rdi
	je	.LBB165_1
# %bb.2:                                # %.lr.ph.i.preheader
	movq	%rdx, %r12
	addq	$16, %r12
	movl	$1, %r15d
	xorl	%r13d, %r13d
	.p2align	4, 0x90
.LBB165_3:                              # %.lr.ph.i
                                        # =>This Inner Loop Header: Depth=1
	movq	(%rdi), %rax
	callq	*48(%rax)
	movq	%rax, %rcx
	movq	%rdx, %rsi
	cmpq	%r15, %rdx
	cmovaq	%rdx, %r15
	movq	%r13, %rax
	xorl	%edx, %edx
	divq	%rsi
	subq	%rdx, %rsi
	testq	%rdx, %rdx
	cmoveq	%rdx, %rsi
	addq	%r13, %rcx
	addq	%rsi, %rcx
	movq	(%r12), %rdi
	addq	$8, %r12
	testq	%rdi, %rdi
	movq	%rcx, %r13
	jne	.LBB165_3
	jmp	.LBB165_4
.LBB165_1:
	movl	$1, %r15d
	xorl	%ecx, %ecx
.LBB165_4:                              # %_size_tuple_typ.exit
	movq	%rcx, %rax
	xorl	%edx, %edx
	divq	%r15
	subq	%rdx, %r15
	testq	%rdx, %rdx
	cmoveq	%rdx, %r15
	addq	%rcx, %r15
	cmpq	$17, %r15
	jge	.LBB165_5
# %bb.9:
	testq	%r15, %r15
	je	.LBB165_12
# %bb.10:                               # %loop-memcpy-expansion.preheader
	xorl	%eax, %eax
	.p2align	4, 0x90
.LBB165_11:                             # %loop-memcpy-expansion
                                        # =>This Inner Loop Header: Depth=1
	movzbl	(%r14,%rax), %ecx
	movb	%cl, 8(%rsp,%rax)
	incq	%rax
	cmpq	%r15, %rax
	jb	.LBB165_11
	jmp	.LBB165_12
.LBB165_5:
	movq	%fs:0, %rax
	leaq	current_ptr@TPOFF(%rax), %rsi
	movq	%r15, %rdi
	callq	bump_malloc_inner@PLT
	testq	%r15, %r15
	je	.LBB165_8
# %bb.6:                                # %loop-memcpy-expansion2.preheader
	xorl	%ecx, %ecx
	.p2align	4, 0x90
.LBB165_7:                              # %loop-memcpy-expansion2
                                        # =>This Inner Loop Header: Depth=1
	movzbl	(%r14,%rcx), %edx
	movb	%dl, (%rax,%rcx)
	incq	%rcx
	cmpq	%r15, %rcx
	jb	.LBB165_7
.LBB165_8:                              # %post-loop-memcpy-expansion1
	movq	%rax, 8(%rsp)
.LBB165_12:
	movl	24(%rsp), %eax
	movq	8(%rsp), %rcx
	movq	16(%rsp), %rdx
	movq	tuple_typ@GOTPCREL(%rip), %rsi
	movq	%rdx, 24(%rbx)
	movq	%rcx, 16(%rbx)
	movl	%eax, 32(%rbx)
	movq	%rsi, (%rbx)
	movq	%rbx, %rax
	addq	$32, %rsp
	.cfi_def_cfa_offset 48
	popq	%rbx
	.cfi_def_cfa_offset 40
	popq	%r12
	.cfi_def_cfa_offset 32
	popq	%r13
	.cfi_def_cfa_offset 24
	popq	%r14
	.cfi_def_cfa_offset 16
	popq	%r15
	.cfi_def_cfa_offset 8
	retq
.Lfunc_end165:
	.size	_box_tuple_typ, .Lfunc_end165-_box_tuple_typ
	.cfi_endproc
                                        # -- End function
	.weak	_unbox_tuple_typ                # -- Begin function _unbox_tuple_typ
	.p2align	4, 0x90
	.type	_unbox_tuple_typ,@function
_unbox_tuple_typ:                       # @_unbox_tuple_typ
	.cfi_startproc
# %bb.0:
	pushq	%rbp
	.cfi_def_cfa_offset 16
	pushq	%r15
	.cfi_def_cfa_offset 24
	pushq	%r14
	.cfi_def_cfa_offset 32
	pushq	%r13
	.cfi_def_cfa_offset 40
	pushq	%r12
	.cfi_def_cfa_offset 48
	pushq	%rbx
	.cfi_def_cfa_offset 56
	subq	$56, %rsp
	.cfi_def_cfa_offset 112
	.cfi_offset %rbx, -56
	.cfi_offset %r12, -48
	.cfi_offset %r13, -40
	.cfi_offset %r14, -32
	.cfi_offset %r15, -24
	.cfi_offset %rbp, -16
	movq	%r9, %rbx
	movq	%rsi, %r14
	leaq	16(%rsp), %rbp
	movq	%rdx, 24(%rsp)
	movq	%rsi, 16(%rsp)
	movl	%ecx, 32(%rsp)
	movq	8(%r8), %rdi
	testq	%rdi, %rdi
	je	.LBB166_1
# %bb.2:                                # %.lr.ph.i.preheader
	movq	%r8, %r15
	addq	$16, %r15
	movl	$1, %r13d
	xorl	%r12d, %r12d
	.p2align	4, 0x90
.LBB166_3:                              # %.lr.ph.i
                                        # =>This Inner Loop Header: Depth=1
	movq	(%rdi), %rax
	callq	*48(%rax)
	movq	%rax, %rcx
	movq	%rdx, %rsi
	cmpq	%r13, %rdx
	cmovaq	%rdx, %r13
	movq	%r12, %rax
	xorl	%edx, %edx
	divq	%rsi
	subq	%rdx, %rsi
	testq	%rdx, %rdx
	cmoveq	%rdx, %rsi
	addq	%r12, %rcx
	addq	%rsi, %rcx
	movq	(%r15), %rdi
	addq	$8, %r15
	testq	%rdi, %rdi
	movq	%rcx, %r12
	jne	.LBB166_3
	jmp	.LBB166_4
.LBB166_1:
	movl	$1, %r13d
	xorl	%ecx, %ecx
.LBB166_4:                              # %_size_tuple_typ.exit
	movq	%rcx, %rax
	xorl	%edx, %edx
	divq	%r13
	subq	%rdx, %r13
	testq	%rdx, %rdx
	cmoveq	%rdx, %r13
	leaq	(%r13,%rcx), %rax
	cmpq	$17, %rax
	cmovlq	%rbp, %r14
	addq	%rcx, %r13
	je	.LBB166_7
# %bb.5:                                # %loop-memcpy-expansion.preheader
	xorl	%eax, %eax
	.p2align	4, 0x90
.LBB166_6:                              # %loop-memcpy-expansion
                                        # =>This Inner Loop Header: Depth=1
	movzbl	(%r14,%rax), %ecx
	movb	%cl, (%rbx,%rax)
	incq	%rax
	cmpq	%r13, %rax
	jb	.LBB166_6
.LBB166_7:                              # %post-loop-memcpy-expansion
	addq	$56, %rsp
	.cfi_def_cfa_offset 56
	popq	%rbx
	.cfi_def_cfa_offset 48
	popq	%r12
	.cfi_def_cfa_offset 40
	popq	%r13
	.cfi_def_cfa_offset 32
	popq	%r14
	.cfi_def_cfa_offset 24
	popq	%r15
	.cfi_def_cfa_offset 16
	popq	%rbp
	.cfi_def_cfa_offset 8
	retq
.Lfunc_end166:
	.size	_unbox_tuple_typ, .Lfunc_end166-_unbox_tuple_typ
	.cfi_endproc
                                        # -- End function
	.globl	ProductIterator_getter_current_first # -- Begin function ProductIterator_getter_current_first
	.p2align	4, 0x90
	.type	ProductIterator_getter_current_first,@function
ProductIterator_getter_current_first:   # @ProductIterator_getter_current_first
# %bb.0:
	movq	96(%rdi), %rax
	movl	104(%rdi), %edx
	retq
.Lfunc_end167:
	.size	ProductIterator_getter_current_first, .Lfunc_end167-ProductIterator_getter_current_first
                                        # -- End function
	.globl	ProductIterator_setter_current_first # -- Begin function ProductIterator_setter_current_first
	.p2align	4, 0x90
	.type	ProductIterator_setter_current_first,@function
ProductIterator_setter_current_first:   # @ProductIterator_setter_current_first
# %bb.0:
	movq	%rsi, 96(%rdi)
	movl	%edx, 104(%rdi)
	retq
.Lfunc_end168:
	.size	ProductIterator_setter_current_first, .Lfunc_end168-ProductIterator_setter_current_first
                                        # -- End function
	.globl	ProductIterator_getter_second_iterable # -- Begin function ProductIterator_getter_second_iterable
	.p2align	4, 0x90
	.type	ProductIterator_getter_second_iterable,@function
ProductIterator_getter_second_iterable: # @ProductIterator_getter_second_iterable
# %bb.0:
	movq	%rdi, %rax
	movq	64(%rsi), %rcx
	movq	72(%rsi), %rdx
	movq	80(%rsi), %rdi
	movl	88(%rsi), %esi
	movl	%esi, 24(%rax)
	movq	%rdi, 16(%rax)
	movq	%rdx, 8(%rax)
	movq	%rcx, (%rax)
	retq
.Lfunc_end169:
	.size	ProductIterator_getter_second_iterable, .Lfunc_end169-ProductIterator_getter_second_iterable
                                        # -- End function
	.globl	ProductIterator_setter_second_iterable # -- Begin function ProductIterator_setter_second_iterable
	.p2align	4, 0x90
	.type	ProductIterator_setter_second_iterable,@function
ProductIterator_setter_second_iterable: # @ProductIterator_setter_second_iterable
# %bb.0:
	movq	%rsi, 64(%rdi)
	movq	%rdx, 72(%rdi)
	movq	%rcx, 80(%rdi)
	movl	%r8d, 88(%rdi)
	retq
.Lfunc_end170:
	.size	ProductIterator_setter_second_iterable, .Lfunc_end170-ProductIterator_setter_second_iterable
                                        # -- End function
	.globl	ProductIterator_getter_second_iterator # -- Begin function ProductIterator_getter_second_iterator
	.p2align	4, 0x90
	.type	ProductIterator_getter_second_iterator,@function
ProductIterator_getter_second_iterator: # @ProductIterator_getter_second_iterator
# %bb.0:
	movq	%rdi, %rax
	movq	32(%rsi), %rcx
	movq	40(%rsi), %rdx
	movq	48(%rsi), %rdi
	movl	56(%rsi), %esi
	movl	%esi, 24(%rax)
	movq	%rdi, 16(%rax)
	movq	%rdx, 8(%rax)
	movq	%rcx, (%rax)
	retq
.Lfunc_end171:
	.size	ProductIterator_getter_second_iterator, .Lfunc_end171-ProductIterator_getter_second_iterator
                                        # -- End function
	.globl	ProductIterator_setter_second_iterator # -- Begin function ProductIterator_setter_second_iterator
	.p2align	4, 0x90
	.type	ProductIterator_setter_second_iterator,@function
ProductIterator_setter_second_iterator: # @ProductIterator_setter_second_iterator
# %bb.0:
	movq	%rsi, 32(%rdi)
	movq	%rdx, 40(%rdi)
	movq	%rcx, 48(%rdi)
	movl	%r8d, 56(%rdi)
	retq
.Lfunc_end172:
	.size	ProductIterator_setter_second_iterator, .Lfunc_end172-ProductIterator_setter_second_iterator
                                        # -- End function
	.globl	ProductIterator_getter_first_iterator # -- Begin function ProductIterator_getter_first_iterator
	.p2align	4, 0x90
	.type	ProductIterator_getter_first_iterator,@function
ProductIterator_getter_first_iterator:  # @ProductIterator_getter_first_iterator
# %bb.0:
	movq	%rdi, %rax
	movq	(%rsi), %rcx
	movq	8(%rsi), %rdx
	movq	16(%rsi), %rdi
	movl	24(%rsi), %esi
	movl	%esi, 24(%rax)
	movq	%rdi, 16(%rax)
	movq	%rdx, 8(%rax)
	movq	%rcx, (%rax)
	retq
.Lfunc_end173:
	.size	ProductIterator_getter_first_iterator, .Lfunc_end173-ProductIterator_getter_first_iterator
                                        # -- End function
	.globl	ProductIterator_setter_first_iterator # -- Begin function ProductIterator_setter_first_iterator
	.p2align	4, 0x90
	.type	ProductIterator_setter_first_iterator,@function
ProductIterator_setter_first_iterator:  # @ProductIterator_setter_first_iterator
# %bb.0:
	movq	%rsi, (%rdi)
	movq	%rdx, 8(%rdi)
	movq	%rcx, 16(%rdi)
	movl	%r8d, 24(%rdi)
	retq
.Lfunc_end174:
	.size	ProductIterator_setter_first_iterator, .Lfunc_end174-ProductIterator_setter_first_iterator
                                        # -- End function
	.globl	ProductIterable_getter_second   # -- Begin function ProductIterable_getter_second
	.p2align	4, 0x90
	.type	ProductIterable_getter_second,@function
ProductIterable_getter_second:          # @ProductIterable_getter_second
# %bb.0:
	movq	%rdi, %rax
	movq	32(%rsi), %rcx
	movq	40(%rsi), %rdx
	movq	48(%rsi), %rdi
	movl	56(%rsi), %esi
	movl	%esi, 24(%rax)
	movq	%rdi, 16(%rax)
	movq	%rdx, 8(%rax)
	movq	%rcx, (%rax)
	retq
.Lfunc_end175:
	.size	ProductIterable_getter_second, .Lfunc_end175-ProductIterable_getter_second
                                        # -- End function
	.globl	ProductIterable_setter_second   # -- Begin function ProductIterable_setter_second
	.p2align	4, 0x90
	.type	ProductIterable_setter_second,@function
ProductIterable_setter_second:          # @ProductIterable_setter_second
# %bb.0:
	movq	%rsi, 32(%rdi)
	movq	%rdx, 40(%rdi)
	movq	%rcx, 48(%rdi)
	movl	%r8d, 56(%rdi)
	retq
.Lfunc_end176:
	.size	ProductIterable_setter_second, .Lfunc_end176-ProductIterable_setter_second
                                        # -- End function
	.globl	ProductIterable_getter_first    # -- Begin function ProductIterable_getter_first
	.p2align	4, 0x90
	.type	ProductIterable_getter_first,@function
ProductIterable_getter_first:           # @ProductIterable_getter_first
# %bb.0:
	movq	%rdi, %rax
	movq	(%rsi), %rcx
	movq	8(%rsi), %rdx
	movq	16(%rsi), %rdi
	movl	24(%rsi), %esi
	movl	%esi, 24(%rax)
	movq	%rdi, 16(%rax)
	movq	%rdx, 8(%rax)
	movq	%rcx, (%rax)
	retq
.Lfunc_end177:
	.size	ProductIterable_getter_first, .Lfunc_end177-ProductIterable_getter_first
                                        # -- End function
	.globl	ProductIterable_setter_first    # -- Begin function ProductIterable_setter_first
	.p2align	4, 0x90
	.type	ProductIterable_setter_first,@function
ProductIterable_setter_first:           # @ProductIterable_setter_first
# %bb.0:
	movq	%rsi, (%rdi)
	movq	%rdx, 8(%rdi)
	movq	%rcx, 16(%rdi)
	movl	%r8d, 24(%rdi)
	retq
.Lfunc_end178:
	.size	ProductIterable_setter_first, .Lfunc_end178-ProductIterable_setter_first
                                        # -- End function
	.globl	_size_IntTupleIterable          # -- Begin function _size_IntTupleIterable
	.p2align	4, 0x90
	.type	_size_IntTupleIterable,@function
_size_IntTupleIterable:                 # @_size_IntTupleIterable
# %bb.0:
	movl	$1, %edx
	xorl	%eax, %eax
	retq
.Lfunc_end179:
	.size	_size_IntTupleIterable, .Lfunc_end179-_size_IntTupleIterable
                                        # -- End function
	.globl	_size_ZipIterable               # -- Begin function _size_ZipIterable
	.p2align	4, 0x90
	.type	_size_ZipIterable,@function
_size_ZipIterable:                      # @_size_ZipIterable
# %bb.0:
	movl	$64, %eax
	movl	$8, %edx
	retq
.Lfunc_end180:
	.size	_size_ZipIterable, .Lfunc_end180-_size_ZipIterable
                                        # -- End function
	.globl	ZipIterable_B_init_firstIntIterable_secondIntIterable # -- Begin function ZipIterable_B_init_firstIntIterable_secondIntIterable
	.p2align	4, 0x90
	.type	ZipIterable_B_init_firstIntIterable_secondIntIterable,@function
ZipIterable_B_init_firstIntIterable_secondIntIterable: # @ZipIterable_B_init_firstIntIterable_secondIntIterable
# %bb.0:
	movq	104(%rdi), %rax
	retq
.Lfunc_end181:
	.size	ZipIterable_B_init_firstIntIterable_secondIntIterable, .Lfunc_end181-ZipIterable_B_init_firstIntIterable_secondIntIterable
                                        # -- End function
	.globl	ZipIterable_B_iterator_         # -- Begin function ZipIterable_B_iterator_
	.p2align	4, 0x90
	.type	ZipIterable_B_iterator_,@function
ZipIterable_B_iterator_:                # @ZipIterable_B_iterator_
# %bb.0:
	movq	112(%rdi), %rax
	retq
.Lfunc_end182:
	.size	ZipIterable_B_iterator_, .Lfunc_end182-ZipIterable_B_iterator_
                                        # -- End function
	.globl	ZipIterable_init_firstIntIterable_secondIntIterable # -- Begin function ZipIterable_init_firstIntIterable_secondIntIterable
	.p2align	4, 0x90
	.type	ZipIterable_init_firstIntIterable_secondIntIterable,@function
ZipIterable_init_firstIntIterable_secondIntIterable: # @ZipIterable_init_firstIntIterable_secondIntIterable
	.cfi_startproc
# %bb.0:
	pushq	%rbp
	.cfi_def_cfa_offset 16
	pushq	%r15
	.cfi_def_cfa_offset 24
	pushq	%r14
	.cfi_def_cfa_offset 32
	pushq	%r13
	.cfi_def_cfa_offset 40
	pushq	%r12
	.cfi_def_cfa_offset 48
	pushq	%rbx
	.cfi_def_cfa_offset 56
	pushq	%rax
	.cfi_def_cfa_offset 64
	.cfi_offset %rbx, -56
	.cfi_offset %r12, -48
	.cfi_offset %r13, -40
	.cfi_offset %r14, -32
	.cfi_offset %r15, -24
	.cfi_offset %rbp, -16
	movq	%rsi, %rbx
	movq	%rdi, %r12
	movq	128(%rsp), %rax
	movq	%rax, (%rsp)                    # 8-byte Spill
	movq	136(%rsp), %r15
	movq	120(%rsp), %r13
	movq	96(%rsp), %rdx
	movq	104(%rsp), %rcx
	movq	88(%rsp), %rsi
	movq	40(%rdi), %rax
	movabsq	$35232740166152944, %rdi        # imm = 0x7D2BFD921132F0
	imulq	8(%r12), %rdi
	movq	%rdi, %r8
	shrq	$32, %r8
	xorq	%rdi, %r8
	andq	16(%r12), %r8
	movslq	(%rax,%r8,4), %rbp
	movq	40(%rsi), %rax
	movabsq	$-7984962120415158575, %r14     # imm = 0x912FB741F3B45ED1
	movq	8(%rsi), %rdi
	imulq	%r14, %rdi
	movq	%rdi, %r8
	shrq	$32, %r8
	xorq	%rdi, %r8
	andq	16(%rsi), %r8
	movl	(%rax,%r8,4), %r8d
	movq	(%r12,%rbp,8), %rax
	movq	%rbx, %rdi
	callq	*8(%rax)
	movq	40(%r13), %rax
	imulq	8(%r13), %r14
	movq	%r14, %rcx
	shrq	$32, %rcx
	xorq	%r14, %rcx
	andq	16(%r13), %rcx
	movl	(%rax,%rcx,4), %r8d
	movq	8(%r12,%rbp,8), %rax
	movq	8(%rax), %rax
	movq	%rbx, %rdi
	movq	%r13, %rsi
	movq	(%rsp), %rdx                    # 8-byte Reload
	movq	%r15, %rcx
	addq	$8, %rsp
	.cfi_def_cfa_offset 56
	popq	%rbx
	.cfi_def_cfa_offset 48
	popq	%r12
	.cfi_def_cfa_offset 40
	popq	%r13
	.cfi_def_cfa_offset 32
	popq	%r14
	.cfi_def_cfa_offset 24
	popq	%r15
	.cfi_def_cfa_offset 16
	popq	%rbp
	.cfi_def_cfa_offset 8
	jmpq	*%rax                           # TAILCALL
.Lfunc_end183:
	.size	ZipIterable_init_firstIntIterable_secondIntIterable, .Lfunc_end183-ZipIterable_init_firstIntIterable_secondIntIterable
	.cfi_endproc
                                        # -- End function
	.globl	ZipIterable_iterator_           # -- Begin function ZipIterable_iterator_
	.p2align	4, 0x90
	.type	ZipIterable_iterator_,@function
ZipIterable_iterator_:                  # @ZipIterable_iterator_
	.cfi_startproc
# %bb.0:
	pushq	%rbp
	.cfi_def_cfa_offset 16
	pushq	%r15
	.cfi_def_cfa_offset 24
	pushq	%r14
	.cfi_def_cfa_offset 32
	pushq	%r13
	.cfi_def_cfa_offset 40
	pushq	%r12
	.cfi_def_cfa_offset 48
	pushq	%rbx
	.cfi_def_cfa_offset 56
	subq	$392, %rsp                      # imm = 0x188
	.cfi_def_cfa_offset 448
	.cfi_offset %rbx, -56
	.cfi_offset %r12, -48
	.cfi_offset %r13, -40
	.cfi_offset %r14, -32
	.cfi_offset %r15, -24
	.cfi_offset %rbp, -16
	movq	%rdx, %r14
	movq	%rsi, %r12
	movq	%rdi, 64(%rsp)                  # 8-byte Spill
	movq	40(%rsi), %rax
	movabsq	$35232740166152944, %rcx        # imm = 0x7D2BFD921132F0
	imulq	8(%rsi), %rcx
	movq	%rcx, %rsi
	shrq	$32, %rsi
	xorq	%rcx, %rsi
	andq	16(%r12), %rsi
	movslq	(%rax,%rsi,4), %rax
	movq	%rax, 16(%rsp)                  # 8-byte Spill
	movq	(%r12,%rax,8), %rax
	leaq	232(%rsp), %rdi
	movq	%rdx, %rsi
	movq	%rdx, 24(%rsp)                  # 8-byte Spill
	callq	*(%rax)
	movslq	256(%rsp), %r13
	movq	248(%rsp), %rbp
	movq	232(%rsp), %rbx
	movq	240(%rsp), %r15
	leaq	8(%rsp), %r8
	movq	%rbx, %rdi
	movq	%r15, %rsi
	movq	%rbp, %rdx
	movl	%r13d, %ecx
	callq	*80(%rbx,%r13,8)
	leaq	360(%rsp), %rdi
	movq	%rbx, %rsi
	movq	%r15, %rdx
	movq	%rbp, %rcx
	movl	%r13d, %r8d
	movq	%rbx, %r9
	leaq	8(%rsp), %r10
	pushq	%r10
	.cfi_adjust_cfa_offset 8
	pushq	%r13
	.cfi_adjust_cfa_offset 8
	pushq	%rbp
	.cfi_adjust_cfa_offset 8
	pushq	%r15
	.cfi_adjust_cfa_offset 8
	callq	*%rax
	addq	$32, %rsp
	.cfi_adjust_cfa_offset -32
	movq	16(%rsp), %rax                  # 8-byte Reload
	movq	8(%r12,%rax,8), %rax
	leaq	200(%rsp), %rdi
	movq	%r14, %rsi
	callq	*(%rax)
	movslq	224(%rsp), %rbx
	movq	216(%rsp), %r15
	movq	200(%rsp), %r13
	movq	208(%rsp), %rbp
	movq	%r13, %rdi
	movq	%rbp, %rsi
	movq	%r15, %rdx
	movl	%ebx, %ecx
	leaq	8(%rsp), %r14
	movq	%r14, %r8
	callq	*80(%r13,%rbx,8)
	leaq	328(%rsp), %rdi
	movq	%r13, %rsi
	movq	%rbp, %rdx
	movq	%r15, %rcx
	movl	%ebx, %r8d
	movq	%r13, %r9
	pushq	%r14
	.cfi_adjust_cfa_offset 8
	pushq	%rbx
	.cfi_adjust_cfa_offset 8
	pushq	%r15
	.cfi_adjust_cfa_offset 8
	pushq	%rbp
	.cfi_adjust_cfa_offset 8
	callq	*%rax
	addq	$32, %rsp
	.cfi_adjust_cfa_offset -32
	movq	%fs:0, %rax
	leaq	current_ptr@TPOFF(%rax), %rsi
	movl	$64, %edi
	callq	bump_malloc_inner@PLT
	movq	ZipIterator@GOTPCREL(%rip), %rcx
	movq	%rcx, 72(%rsp)
	movq	%rax, 80(%rsp)
	movl	$9, 96(%rsp)
	movq	16(%rsp), %r14                  # 8-byte Reload
	movq	(%r12,%r14,8), %rax
	leaq	168(%rsp), %rdi
	movq	24(%rsp), %rsi                  # 8-byte Reload
	callq	*(%rax)
	movslq	192(%rsp), %rbx
	movq	184(%rsp), %r15
	movq	168(%rsp), %r13
	movq	176(%rsp), %rbp
	movq	%r13, %rdi
	movq	%rbp, %rsi
	movq	%r15, %rdx
	movl	%ebx, %ecx
	leaq	8(%rsp), %r8
	callq	*80(%r13,%rbx,8)
	leaq	296(%rsp), %rdi
	movq	%r13, %rsi
	movq	%rbp, %rdx
	movq	%r15, %rcx
	movl	%ebx, %r8d
	movq	%r13, %r9
	leaq	8(%rsp), %r13
	pushq	%r13
	.cfi_adjust_cfa_offset 8
	pushq	%rbx
	.cfi_adjust_cfa_offset 8
	pushq	%r15
	.cfi_adjust_cfa_offset 8
	pushq	%rbp
	.cfi_adjust_cfa_offset 8
	callq	*%rax
	addq	$32, %rsp
	.cfi_adjust_cfa_offset -32
	movq	312(%rsp), %rax
	movq	%rax, 56(%rsp)                  # 8-byte Spill
	movq	296(%rsp), %rbp
	movq	304(%rsp), %rax
	movq	%rax, 48(%rsp)                  # 8-byte Spill
	movq	8(%r12,%r14,8), %rax
	leaq	136(%rsp), %rdi
	movq	24(%rsp), %rsi                  # 8-byte Reload
	callq	*(%rax)
	movslq	160(%rsp), %rbx
	movq	152(%rsp), %r14
	movq	136(%rsp), %r15
	movq	144(%rsp), %r12
	movq	%r15, %rdi
	movq	%r12, %rsi
	movq	%r14, %rdx
	movl	%ebx, %ecx
	movq	%r13, %r8
	callq	*80(%r15,%rbx,8)
	leaq	264(%rsp), %rdi
	movq	%r15, %rsi
	movq	%r12, %rdx
	movq	%r14, %rcx
	movl	%ebx, %r8d
	movq	%r15, %r9
	pushq	%r13
	.cfi_adjust_cfa_offset 8
	pushq	%rbx
	.cfi_adjust_cfa_offset 8
	pushq	%r14
	.cfi_adjust_cfa_offset 8
	pushq	%r12
	.cfi_adjust_cfa_offset 8
	callq	*%rax
	addq	$32, %rsp
	.cfi_adjust_cfa_offset -32
	movq	280(%rsp), %rax
	movq	%rax, 24(%rsp)                  # 8-byte Spill
	movq	264(%rsp), %rbx
	movq	272(%rsp), %rax
	movq	%rax, 16(%rsp)                  # 8-byte Spill
	movq	40(%rbx), %rax
	movabsq	$-933084275656658555, %rcx      # imm = 0xF30D04CB83FB7185
	movq	8(%rbx), %rdx
	imulq	%rcx, %rdx
	movq	%rdx, %rsi
	shrq	$32, %rsi
	xorq	%rdx, %rsi
	andq	16(%rbx), %rsi
	movq	40(%rbp), %rdx
	imulq	8(%rbp), %rcx
	movq	%rcx, %rdi
	shrq	$32, %rdi
	xorq	%rcx, %rdi
	andq	16(%rbp), %rdi
	movl	(%rdx,%rdi,4), %ecx
	movq	%rcx, 40(%rsp)                  # 8-byte Spill
	movl	(%rax,%rsi,4), %eax
	movq	%rax, 32(%rsp)                  # 8-byte Spill
	movq	72(%rsp), %r14
	movq	80(%rsp), %r15
	movq	88(%rsp), %r12
	movslq	96(%rsp), %r13
	movq	_parameterization_IntIterator@GOTPCREL(%rip), %rax
	movq	%rax, 120(%rsp)
	movq	%rax, 128(%rsp)
	movq	16(%r14,%r13,8), %rax
	movq	%rbp, 104(%rsp)
	movq	%rbx, 112(%rsp)
	leaq	104(%rsp), %r8
	movq	%r14, %rdi
	movq	%r15, %rsi
	movq	%r12, %rdx
	movl	%r13d, %ecx
	callq	*%rax
	subq	$8, %rsp
	.cfi_adjust_cfa_offset 8
	leaq	128(%rsp), %r10
	movq	%r14, %rdi
	movq	%r15, %rsi
	movq	%r12, %rdx
	movl	%r13d, %ecx
	movq	%r14, %r8
	movq	%r15, %r9
	pushq	40(%rsp)                        # 8-byte Folded Reload
	.cfi_adjust_cfa_offset 8
	pushq	40(%rsp)                        # 8-byte Folded Reload
	.cfi_adjust_cfa_offset 8
	pushq	40(%rsp)                        # 8-byte Folded Reload
	.cfi_adjust_cfa_offset 8
	pushq	%rbx
	.cfi_adjust_cfa_offset 8
	pushq	80(%rsp)                        # 8-byte Folded Reload
	.cfi_adjust_cfa_offset 8
	pushq	104(%rsp)                       # 8-byte Folded Reload
	.cfi_adjust_cfa_offset 8
	pushq	104(%rsp)                       # 8-byte Folded Reload
	.cfi_adjust_cfa_offset 8
	pushq	%rbp
	.cfi_adjust_cfa_offset 8
	pushq	%r10
	.cfi_adjust_cfa_offset 8
	pushq	%r13
	.cfi_adjust_cfa_offset 8
	pushq	%r12
	.cfi_adjust_cfa_offset 8
	callq	*%rax
	addq	$96, %rsp
	.cfi_adjust_cfa_offset -96
	movq	40(%r14), %rax
	movabsq	$8673632051301757104, %rcx      # imm = 0x785EEE655248B0B0
	imulq	8(%r14), %rcx
	movq	%rcx, %rdx
	shrq	$32, %rdx
	xorq	%rcx, %rdx
	andq	16(%r14), %rdx
	movl	(%rax,%rdx,4), %ecx
	movq	64(%rsp), %rax                  # 8-byte Reload
	movq	%r12, 16(%rax)
	movq	%r15, 8(%rax)
	movq	%r14, (%rax)
	movl	%ecx, 24(%rax)
	addq	$392, %rsp                      # imm = 0x188
	.cfi_def_cfa_offset 56
	popq	%rbx
	.cfi_def_cfa_offset 48
	popq	%r12
	.cfi_def_cfa_offset 40
	popq	%r13
	.cfi_def_cfa_offset 32
	popq	%r14
	.cfi_def_cfa_offset 24
	popq	%r15
	.cfi_def_cfa_offset 16
	popq	%rbp
	.cfi_def_cfa_offset 8
	retq
.Lfunc_end184:
	.size	ZipIterable_iterator_, .Lfunc_end184-ZipIterable_iterator_
	.cfi_endproc
                                        # -- End function
	.globl	_size_ZipIterator               # -- Begin function _size_ZipIterator
	.p2align	4, 0x90
	.type	_size_ZipIterator,@function
_size_ZipIterator:                      # @_size_ZipIterator
# %bb.0:
	movl	$64, %eax
	movl	$8, %edx
	retq
.Lfunc_end185:
	.size	_size_ZipIterator, .Lfunc_end185-_size_ZipIterator
                                        # -- End function
	.globl	ZipIterator_B_init_firstIntIterator_secondIntIterator # -- Begin function ZipIterator_B_init_firstIntIterator_secondIntIterator
	.p2align	4, 0x90
	.type	ZipIterator_B_init_firstIntIterator_secondIntIterator,@function
ZipIterator_B_init_firstIntIterator_secondIntIterator: # @ZipIterator_B_init_firstIntIterator_secondIntIterator
# %bb.0:
	movq	104(%rdi), %rax
	retq
.Lfunc_end186:
	.size	ZipIterator_B_init_firstIntIterator_secondIntIterator, .Lfunc_end186-ZipIterator_B_init_firstIntIterator_secondIntIterator
                                        # -- End function
	.globl	ZipIterator_B_next_             # -- Begin function ZipIterator_B_next_
	.p2align	4, 0x90
	.type	ZipIterator_B_next_,@function
ZipIterator_B_next_:                    # @ZipIterator_B_next_
# %bb.0:
	movq	112(%rdi), %rax
	retq
.Lfunc_end187:
	.size	ZipIterator_B_next_, .Lfunc_end187-ZipIterator_B_next_
                                        # -- End function
	.globl	ZipIterator_init_firstIntIterator_secondIntIterator # -- Begin function ZipIterator_init_firstIntIterator_secondIntIterator
	.p2align	4, 0x90
	.type	ZipIterator_init_firstIntIterator_secondIntIterator,@function
ZipIterator_init_firstIntIterator_secondIntIterator: # @ZipIterator_init_firstIntIterator_secondIntIterator
	.cfi_startproc
# %bb.0:
	pushq	%rbp
	.cfi_def_cfa_offset 16
	pushq	%r15
	.cfi_def_cfa_offset 24
	pushq	%r14
	.cfi_def_cfa_offset 32
	pushq	%r13
	.cfi_def_cfa_offset 40
	pushq	%r12
	.cfi_def_cfa_offset 48
	pushq	%rbx
	.cfi_def_cfa_offset 56
	pushq	%rax
	.cfi_def_cfa_offset 64
	.cfi_offset %rbx, -56
	.cfi_offset %r12, -48
	.cfi_offset %r13, -40
	.cfi_offset %r14, -32
	.cfi_offset %r15, -24
	.cfi_offset %rbp, -16
	movq	%rsi, %rbx
	movq	%rdi, %r12
	movq	128(%rsp), %rax
	movq	%rax, (%rsp)                    # 8-byte Spill
	movq	136(%rsp), %r15
	movq	120(%rsp), %r13
	movq	96(%rsp), %rdx
	movq	104(%rsp), %rcx
	movq	88(%rsp), %rsi
	movq	40(%rdi), %rax
	movabsq	$-2141114445739585318, %rdi     # imm = 0xE2493BC1763C10DA
	imulq	8(%r12), %rdi
	movq	%rdi, %r8
	shrq	$32, %r8
	xorq	%rdi, %r8
	andq	16(%r12), %r8
	movslq	(%rax,%r8,4), %rbp
	movq	40(%rsi), %rax
	movabsq	$-933084275656658555, %r14      # imm = 0xF30D04CB83FB7185
	movq	8(%rsi), %rdi
	imulq	%r14, %rdi
	movq	%rdi, %r8
	shrq	$32, %r8
	xorq	%rdi, %r8
	andq	16(%rsi), %r8
	movl	(%rax,%r8,4), %r8d
	movq	(%r12,%rbp,8), %rax
	movq	%rbx, %rdi
	callq	*8(%rax)
	movq	40(%r13), %rax
	imulq	8(%r13), %r14
	movq	%r14, %rcx
	shrq	$32, %rcx
	xorq	%r14, %rcx
	andq	16(%r13), %rcx
	movl	(%rax,%rcx,4), %r8d
	movq	8(%r12,%rbp,8), %rax
	movq	8(%rax), %rax
	movq	%rbx, %rdi
	movq	%r13, %rsi
	movq	(%rsp), %rdx                    # 8-byte Reload
	movq	%r15, %rcx
	addq	$8, %rsp
	.cfi_def_cfa_offset 56
	popq	%rbx
	.cfi_def_cfa_offset 48
	popq	%r12
	.cfi_def_cfa_offset 40
	popq	%r13
	.cfi_def_cfa_offset 32
	popq	%r14
	.cfi_def_cfa_offset 24
	popq	%r15
	.cfi_def_cfa_offset 16
	popq	%rbp
	.cfi_def_cfa_offset 8
	jmpq	*%rax                           # TAILCALL
.Lfunc_end188:
	.size	ZipIterator_init_firstIntIterator_secondIntIterator, .Lfunc_end188-ZipIterator_init_firstIntIterator_secondIntIterator
	.cfi_endproc
                                        # -- End function
	.globl	ZipIterator_next_               # -- Begin function ZipIterator_next_
	.p2align	4, 0x90
	.type	ZipIterator_next_,@function
ZipIterator_next_:                      # @ZipIterator_next_
	.cfi_startproc
# %bb.0:
	pushq	%rbp
	.cfi_def_cfa_offset 16
	pushq	%r15
	.cfi_def_cfa_offset 24
	pushq	%r14
	.cfi_def_cfa_offset 32
	pushq	%r13
	.cfi_def_cfa_offset 40
	pushq	%r12
	.cfi_def_cfa_offset 48
	pushq	%rbx
	.cfi_def_cfa_offset 56
	subq	$88, %rsp
	.cfi_def_cfa_offset 144
	.cfi_offset %rbx, -56
	.cfi_offset %r12, -48
	.cfi_offset %r13, -40
	.cfi_offset %r14, -32
	.cfi_offset %r15, -24
	.cfi_offset %rbp, -16
	movq	%rsi, 16(%rsp)                  # 8-byte Spill
	movq	%rdi, %r12
	movq	40(%rdi), %rax
	movabsq	$-2141114445739585318, %rcx     # imm = 0xE2493BC1763C10DA
	imulq	8(%rdi), %rcx
	movq	%rcx, %rdx
	shrq	$32, %rdx
	xorq	%rcx, %rdx
	andq	16(%rdi), %rdx
	movslq	(%rax,%rdx,4), %r14
	movq	(%rdi,%r14,8), %rax
	leaq	56(%rsp), %rdi
	callq	*(%rax)
	movslq	80(%rsp), %rbx
	movq	72(%rsp), %r13
	movq	56(%rsp), %rbp
	movq	64(%rsp), %r15
	leaq	8(%rsp), %r8
	movq	%rbp, %rdi
	movq	%r15, %rsi
	movq	%r13, %rdx
	movl	%ebx, %ecx
	callq	*(%rbp,%rbx,8)
	subq	$8, %rsp
	.cfi_adjust_cfa_offset 8
	movq	%rbp, %rdi
	movq	%r15, %rsi
	movq	%r13, %rdx
	movl	%ebx, %ecx
	movq	%rbp, %r8
	movq	%r15, %r9
	leaq	16(%rsp), %r10
	pushq	%r10
	.cfi_adjust_cfa_offset 8
	pushq	%rbx
	.cfi_adjust_cfa_offset 8
	pushq	%r13
	.cfi_adjust_cfa_offset 8
	callq	*%rax
	addq	$32, %rsp
	.cfi_adjust_cfa_offset -32
	movq	%rax, %r13
	movl	%edx, 12(%rsp)                  # 4-byte Spill
	movq	8(%r12,%r14,8), %rax
	leaq	24(%rsp), %rdi
	movq	16(%rsp), %rsi                  # 8-byte Reload
	callq	*(%rax)
	movslq	48(%rsp), %r14
	movq	40(%rsp), %r15
	movq	24(%rsp), %r12
	movq	32(%rsp), %rbp
	movq	%r12, %rdi
	movq	%rbp, %rsi
	movq	%r15, %rdx
	movl	%r14d, %ecx
	leaq	8(%rsp), %rbx
	movq	%rbx, %r8
	callq	*(%r12,%r14,8)
	subq	$8, %rsp
	.cfi_adjust_cfa_offset 8
	movq	%r12, %rdi
	movq	%rbp, %rsi
	movq	%r15, %rdx
	movl	%r14d, %ecx
	movq	%r12, %r8
	movq	%rbp, %r9
	pushq	%rbx
	.cfi_adjust_cfa_offset 8
	pushq	%r14
	.cfi_adjust_cfa_offset 8
	pushq	%r15
	.cfi_adjust_cfa_offset 8
	callq	*%rax
	addq	$32, %rsp
	.cfi_adjust_cfa_offset -32
	movq	%rax, %rcx
                                        # kill: def $edx killed $edx def $rdx
	movq	nil_typ@GOTPCREL(%rip), %rax
	cmpq	%rax, %r13
	sete	%sil
	testq	%r13, %r13
	sete	%dil
	orb	%sil, %dil
	jne	.LBB189_4
# %bb.1:
	movq	nil_typ@GOTPCREL(%rip), %rax
	cmpq	%rax, %rcx
	setne	%sil
	testq	%rcx, %rcx
	setne	%dil
	shlq	$32, %rdx
	movl	12(%rsp), %ecx                  # 4-byte Reload
	testb	%dil, %sil
	je	.LBB189_3
# %bb.2:
	movq	tuple_typ@GOTPCREL(%rip), %rax
.LBB189_3:
	orq	%rcx, %rdx
.LBB189_4:                              # %.thread
	addq	$88, %rsp
	.cfi_def_cfa_offset 56
	popq	%rbx
	.cfi_def_cfa_offset 48
	popq	%r12
	.cfi_def_cfa_offset 40
	popq	%r13
	.cfi_def_cfa_offset 32
	popq	%r14
	.cfi_def_cfa_offset 24
	popq	%r15
	.cfi_def_cfa_offset 16
	popq	%rbp
	.cfi_def_cfa_offset 8
	retq
.Lfunc_end189:
	.size	ZipIterator_next_, .Lfunc_end189-ZipIterator_next_
	.cfi_endproc
                                        # -- End function
	.globl	ZipIterator_getter_second       # -- Begin function ZipIterator_getter_second
	.p2align	4, 0x90
	.type	ZipIterator_getter_second,@function
ZipIterator_getter_second:              # @ZipIterator_getter_second
# %bb.0:
	movq	%rdi, %rax
	movq	32(%rsi), %rcx
	movq	40(%rsi), %rdx
	movq	48(%rsi), %rdi
	movl	56(%rsi), %esi
	movl	%esi, 24(%rax)
	movq	%rdi, 16(%rax)
	movq	%rdx, 8(%rax)
	movq	%rcx, (%rax)
	retq
.Lfunc_end190:
	.size	ZipIterator_getter_second, .Lfunc_end190-ZipIterator_getter_second
                                        # -- End function
	.globl	ZipIterator_setter_second       # -- Begin function ZipIterator_setter_second
	.p2align	4, 0x90
	.type	ZipIterator_setter_second,@function
ZipIterator_setter_second:              # @ZipIterator_setter_second
# %bb.0:
	movq	%rsi, 32(%rdi)
	movq	%rdx, 40(%rdi)
	movq	%rcx, 48(%rdi)
	movl	%r8d, 56(%rdi)
	retq
.Lfunc_end191:
	.size	ZipIterator_setter_second, .Lfunc_end191-ZipIterator_setter_second
                                        # -- End function
	.globl	ZipIterator_getter_first        # -- Begin function ZipIterator_getter_first
	.p2align	4, 0x90
	.type	ZipIterator_getter_first,@function
ZipIterator_getter_first:               # @ZipIterator_getter_first
# %bb.0:
	movq	%rdi, %rax
	movq	(%rsi), %rcx
	movq	8(%rsi), %rdx
	movq	16(%rsi), %rdi
	movl	24(%rsi), %esi
	movl	%esi, 24(%rax)
	movq	%rdi, 16(%rax)
	movq	%rdx, 8(%rax)
	movq	%rcx, (%rax)
	retq
.Lfunc_end192:
	.size	ZipIterator_getter_first, .Lfunc_end192-ZipIterator_getter_first
                                        # -- End function
	.globl	ZipIterator_setter_first        # -- Begin function ZipIterator_setter_first
	.p2align	4, 0x90
	.type	ZipIterator_setter_first,@function
ZipIterator_setter_first:               # @ZipIterator_setter_first
# %bb.0:
	movq	%rsi, (%rdi)
	movq	%rdx, 8(%rdi)
	movq	%rcx, 16(%rdi)
	movl	%r8d, 24(%rdi)
	retq
.Lfunc_end193:
	.size	ZipIterator_setter_first, .Lfunc_end193-ZipIterator_setter_first
                                        # -- End function
	.globl	_size_IntTupleIterator          # -- Begin function _size_IntTupleIterator
	.p2align	4, 0x90
	.type	_size_IntTupleIterator,@function
_size_IntTupleIterator:                 # @_size_IntTupleIterator
# %bb.0:
	movl	$1, %edx
	xorl	%eax, %eax
	retq
.Lfunc_end194:
	.size	_size_IntTupleIterator, .Lfunc_end194-_size_IntTupleIterator
                                        # -- End function
	.globl	ZipIterable_getter_second       # -- Begin function ZipIterable_getter_second
	.p2align	4, 0x90
	.type	ZipIterable_getter_second,@function
ZipIterable_getter_second:              # @ZipIterable_getter_second
# %bb.0:
	movq	%rdi, %rax
	movq	32(%rsi), %rcx
	movq	40(%rsi), %rdx
	movq	48(%rsi), %rdi
	movl	56(%rsi), %esi
	movl	%esi, 24(%rax)
	movq	%rdi, 16(%rax)
	movq	%rdx, 8(%rax)
	movq	%rcx, (%rax)
	retq
.Lfunc_end195:
	.size	ZipIterable_getter_second, .Lfunc_end195-ZipIterable_getter_second
                                        # -- End function
	.globl	ZipIterable_setter_second       # -- Begin function ZipIterable_setter_second
	.p2align	4, 0x90
	.type	ZipIterable_setter_second,@function
ZipIterable_setter_second:              # @ZipIterable_setter_second
# %bb.0:
	movq	%rsi, 32(%rdi)
	movq	%rdx, 40(%rdi)
	movq	%rcx, 48(%rdi)
	movl	%r8d, 56(%rdi)
	retq
.Lfunc_end196:
	.size	ZipIterable_setter_second, .Lfunc_end196-ZipIterable_setter_second
                                        # -- End function
	.globl	ZipIterable_getter_first        # -- Begin function ZipIterable_getter_first
	.p2align	4, 0x90
	.type	ZipIterable_getter_first,@function
ZipIterable_getter_first:               # @ZipIterable_getter_first
# %bb.0:
	movq	%rdi, %rax
	movq	(%rsi), %rcx
	movq	8(%rsi), %rdx
	movq	16(%rsi), %rdi
	movl	24(%rsi), %esi
	movl	%esi, 24(%rax)
	movq	%rdi, 16(%rax)
	movq	%rdx, 8(%rax)
	movq	%rcx, (%rax)
	retq
.Lfunc_end197:
	.size	ZipIterable_getter_first, .Lfunc_end197-ZipIterable_getter_first
                                        # -- End function
	.globl	ZipIterable_setter_first        # -- Begin function ZipIterable_setter_first
	.p2align	4, 0x90
	.type	ZipIterable_setter_first,@function
ZipIterable_setter_first:               # @ZipIterable_setter_first
# %bb.0:
	movq	%rsi, (%rdi)
	movq	%rdx, 8(%rdi)
	movq	%rcx, 16(%rdi)
	movl	%r8d, 24(%rdi)
	retq
.Lfunc_end198:
	.size	ZipIterable_setter_first, .Lfunc_end198-ZipIterable_setter_first
                                        # -- End function
	.globl	_size_InterleaveIterable        # -- Begin function _size_InterleaveIterable
	.p2align	4, 0x90
	.type	_size_InterleaveIterable,@function
_size_InterleaveIterable:               # @_size_InterleaveIterable
# %bb.0:
	movl	$64, %eax
	movl	$8, %edx
	retq
.Lfunc_end199:
	.size	_size_InterleaveIterable, .Lfunc_end199-_size_InterleaveIterable
                                        # -- End function
	.globl	InterleaveIterable_B_init_firstIntIterable_secondIntIterable # -- Begin function InterleaveIterable_B_init_firstIntIterable_secondIntIterable
	.p2align	4, 0x90
	.type	InterleaveIterable_B_init_firstIntIterable_secondIntIterable,@function
InterleaveIterable_B_init_firstIntIterable_secondIntIterable: # @InterleaveIterable_B_init_firstIntIterable_secondIntIterable
# %bb.0:
	movq	184(%rdi), %rax
	retq
.Lfunc_end200:
	.size	InterleaveIterable_B_init_firstIntIterable_secondIntIterable, .Lfunc_end200-InterleaveIterable_B_init_firstIntIterable_secondIntIterable
                                        # -- End function
	.globl	InterleaveIterable_B_each_fFunctionPtri32_to_Nothing # -- Begin function InterleaveIterable_B_each_fFunctionPtri32_to_Nothing
	.p2align	4, 0x90
	.type	InterleaveIterable_B_each_fFunctionPtri32_to_Nothing,@function
InterleaveIterable_B_each_fFunctionPtri32_to_Nothing: # @InterleaveIterable_B_each_fFunctionPtri32_to_Nothing
# %bb.0:
	movq	192(%rdi), %rax
	retq
.Lfunc_end201:
	.size	InterleaveIterable_B_each_fFunctionPtri32_to_Nothing, .Lfunc_end201-InterleaveIterable_B_each_fFunctionPtri32_to_Nothing
                                        # -- End function
	.globl	InterleaveIterable_B_reduce_initial_valPtri32_fFunctionPtri32._Ptri32_to_Ptri32 # -- Begin function InterleaveIterable_B_reduce_initial_valPtri32_fFunctionPtri32._Ptri32_to_Ptri32
	.p2align	4, 0x90
	.type	InterleaveIterable_B_reduce_initial_valPtri32_fFunctionPtri32._Ptri32_to_Ptri32,@function
InterleaveIterable_B_reduce_initial_valPtri32_fFunctionPtri32._Ptri32_to_Ptri32: # @InterleaveIterable_B_reduce_initial_valPtri32_fFunctionPtri32._Ptri32_to_Ptri32
# %bb.0:
	movq	200(%rdi), %rax
	retq
.Lfunc_end202:
	.size	InterleaveIterable_B_reduce_initial_valPtri32_fFunctionPtri32._Ptri32_to_Ptri32, .Lfunc_end202-InterleaveIterable_B_reduce_initial_valPtri32_fFunctionPtri32._Ptri32_to_Ptri32
                                        # -- End function
	.globl	InterleaveIterable_B_all_fFunctionPtri32_to_Ptri1 # -- Begin function InterleaveIterable_B_all_fFunctionPtri32_to_Ptri1
	.p2align	4, 0x90
	.type	InterleaveIterable_B_all_fFunctionPtri32_to_Ptri1,@function
InterleaveIterable_B_all_fFunctionPtri32_to_Ptri1: # @InterleaveIterable_B_all_fFunctionPtri32_to_Ptri1
# %bb.0:
	movq	208(%rdi), %rax
	retq
.Lfunc_end203:
	.size	InterleaveIterable_B_all_fFunctionPtri32_to_Ptri1, .Lfunc_end203-InterleaveIterable_B_all_fFunctionPtri32_to_Ptri1
                                        # -- End function
	.globl	InterleaveIterable_B_any_fFunctionPtri32_to_Ptri1 # -- Begin function InterleaveIterable_B_any_fFunctionPtri32_to_Ptri1
	.p2align	4, 0x90
	.type	InterleaveIterable_B_any_fFunctionPtri32_to_Ptri1,@function
InterleaveIterable_B_any_fFunctionPtri32_to_Ptri1: # @InterleaveIterable_B_any_fFunctionPtri32_to_Ptri1
# %bb.0:
	movq	216(%rdi), %rax
	retq
.Lfunc_end204:
	.size	InterleaveIterable_B_any_fFunctionPtri32_to_Ptri1, .Lfunc_end204-InterleaveIterable_B_any_fFunctionPtri32_to_Ptri1
                                        # -- End function
	.globl	InterleaveIterable_B_map_fFunctionPtri32_to_Ptri32 # -- Begin function InterleaveIterable_B_map_fFunctionPtri32_to_Ptri32
	.p2align	4, 0x90
	.type	InterleaveIterable_B_map_fFunctionPtri32_to_Ptri32,@function
InterleaveIterable_B_map_fFunctionPtri32_to_Ptri32: # @InterleaveIterable_B_map_fFunctionPtri32_to_Ptri32
# %bb.0:
	movq	224(%rdi), %rax
	retq
.Lfunc_end205:
	.size	InterleaveIterable_B_map_fFunctionPtri32_to_Ptri32, .Lfunc_end205-InterleaveIterable_B_map_fFunctionPtri32_to_Ptri32
                                        # -- End function
	.globl	InterleaveIterable_B_filter_fFunctionPtri32_to_Ptri1 # -- Begin function InterleaveIterable_B_filter_fFunctionPtri32_to_Ptri1
	.p2align	4, 0x90
	.type	InterleaveIterable_B_filter_fFunctionPtri32_to_Ptri1,@function
InterleaveIterable_B_filter_fFunctionPtri32_to_Ptri1: # @InterleaveIterable_B_filter_fFunctionPtri32_to_Ptri1
# %bb.0:
	movq	232(%rdi), %rax
	retq
.Lfunc_end206:
	.size	InterleaveIterable_B_filter_fFunctionPtri32_to_Ptri1, .Lfunc_end206-InterleaveIterable_B_filter_fFunctionPtri32_to_Ptri1
                                        # -- End function
	.globl	InterleaveIterable_B_chain_otherIntIterable # -- Begin function InterleaveIterable_B_chain_otherIntIterable
	.p2align	4, 0x90
	.type	InterleaveIterable_B_chain_otherIntIterable,@function
InterleaveIterable_B_chain_otherIntIterable: # @InterleaveIterable_B_chain_otherIntIterable
# %bb.0:
	movq	240(%rdi), %rax
	retq
.Lfunc_end207:
	.size	InterleaveIterable_B_chain_otherIntIterable, .Lfunc_end207-InterleaveIterable_B_chain_otherIntIterable
                                        # -- End function
	.globl	InterleaveIterable_B_interleave_otherIntIterable # -- Begin function InterleaveIterable_B_interleave_otherIntIterable
	.p2align	4, 0x90
	.type	InterleaveIterable_B_interleave_otherIntIterable,@function
InterleaveIterable_B_interleave_otherIntIterable: # @InterleaveIterable_B_interleave_otherIntIterable
# %bb.0:
	movq	248(%rdi), %rax
	retq
.Lfunc_end208:
	.size	InterleaveIterable_B_interleave_otherIntIterable, .Lfunc_end208-InterleaveIterable_B_interleave_otherIntIterable
                                        # -- End function
	.globl	InterleaveIterable_B_zip_otherIntIterable # -- Begin function InterleaveIterable_B_zip_otherIntIterable
	.p2align	4, 0x90
	.type	InterleaveIterable_B_zip_otherIntIterable,@function
InterleaveIterable_B_zip_otherIntIterable: # @InterleaveIterable_B_zip_otherIntIterable
# %bb.0:
	movq	256(%rdi), %rax
	retq
.Lfunc_end209:
	.size	InterleaveIterable_B_zip_otherIntIterable, .Lfunc_end209-InterleaveIterable_B_zip_otherIntIterable
                                        # -- End function
	.globl	InterleaveIterable_B_product_otherIntIterable # -- Begin function InterleaveIterable_B_product_otherIntIterable
	.p2align	4, 0x90
	.type	InterleaveIterable_B_product_otherIntIterable,@function
InterleaveIterable_B_product_otherIntIterable: # @InterleaveIterable_B_product_otherIntIterable
# %bb.0:
	movq	264(%rdi), %rax
	retq
.Lfunc_end210:
	.size	InterleaveIterable_B_product_otherIntIterable, .Lfunc_end210-InterleaveIterable_B_product_otherIntIterable
                                        # -- End function
	.globl	InterleaveIterable_B_iterator_  # -- Begin function InterleaveIterable_B_iterator_
	.p2align	4, 0x90
	.type	InterleaveIterable_B_iterator_,@function
InterleaveIterable_B_iterator_:         # @InterleaveIterable_B_iterator_
# %bb.0:
	movq	272(%rdi), %rax
	retq
.Lfunc_end211:
	.size	InterleaveIterable_B_iterator_, .Lfunc_end211-InterleaveIterable_B_iterator_
                                        # -- End function
	.globl	InterleaveIterable_init_firstIntIterable_secondIntIterable # -- Begin function InterleaveIterable_init_firstIntIterable_secondIntIterable
	.p2align	4, 0x90
	.type	InterleaveIterable_init_firstIntIterable_secondIntIterable,@function
InterleaveIterable_init_firstIntIterable_secondIntIterable: # @InterleaveIterable_init_firstIntIterable_secondIntIterable
	.cfi_startproc
# %bb.0:
	pushq	%rbp
	.cfi_def_cfa_offset 16
	pushq	%r15
	.cfi_def_cfa_offset 24
	pushq	%r14
	.cfi_def_cfa_offset 32
	pushq	%r13
	.cfi_def_cfa_offset 40
	pushq	%r12
	.cfi_def_cfa_offset 48
	pushq	%rbx
	.cfi_def_cfa_offset 56
	pushq	%rax
	.cfi_def_cfa_offset 64
	.cfi_offset %rbx, -56
	.cfi_offset %r12, -48
	.cfi_offset %r13, -40
	.cfi_offset %r14, -32
	.cfi_offset %r15, -24
	.cfi_offset %rbp, -16
	movq	%rsi, %rbx
	movq	%rdi, %r12
	movq	128(%rsp), %rax
	movq	%rax, (%rsp)                    # 8-byte Spill
	movq	136(%rsp), %r15
	movq	120(%rsp), %r13
	movq	96(%rsp), %rdx
	movq	104(%rsp), %rcx
	movq	88(%rsp), %rsi
	movq	40(%rdi), %rax
	movabsq	$4936782714255954462, %rdi      # imm = 0x4482F9B8F083D21E
	imulq	8(%r12), %rdi
	movq	%rdi, %r8
	shrq	$32, %r8
	xorq	%rdi, %r8
	andq	16(%r12), %r8
	movslq	(%rax,%r8,4), %rbp
	movq	40(%rsi), %rax
	movabsq	$-7984962120415158575, %r14     # imm = 0x912FB741F3B45ED1
	movq	8(%rsi), %rdi
	imulq	%r14, %rdi
	movq	%rdi, %r8
	shrq	$32, %r8
	xorq	%rdi, %r8
	andq	16(%rsi), %r8
	movl	(%rax,%r8,4), %r8d
	movq	(%r12,%rbp,8), %rax
	movq	%rbx, %rdi
	callq	*8(%rax)
	movq	40(%r13), %rax
	imulq	8(%r13), %r14
	movq	%r14, %rcx
	shrq	$32, %rcx
	xorq	%r14, %rcx
	andq	16(%r13), %rcx
	movl	(%rax,%rcx,4), %r8d
	movq	8(%r12,%rbp,8), %rax
	movq	8(%rax), %rax
	movq	%rbx, %rdi
	movq	%r13, %rsi
	movq	(%rsp), %rdx                    # 8-byte Reload
	movq	%r15, %rcx
	addq	$8, %rsp
	.cfi_def_cfa_offset 56
	popq	%rbx
	.cfi_def_cfa_offset 48
	popq	%r12
	.cfi_def_cfa_offset 40
	popq	%r13
	.cfi_def_cfa_offset 32
	popq	%r14
	.cfi_def_cfa_offset 24
	popq	%r15
	.cfi_def_cfa_offset 16
	popq	%rbp
	.cfi_def_cfa_offset 8
	jmpq	*%rax                           # TAILCALL
.Lfunc_end212:
	.size	InterleaveIterable_init_firstIntIterable_secondIntIterable, .Lfunc_end212-InterleaveIterable_init_firstIntIterable_secondIntIterable
	.cfi_endproc
                                        # -- End function
	.globl	InterleaveIterable_iterator_    # -- Begin function InterleaveIterable_iterator_
	.p2align	4, 0x90
	.type	InterleaveIterable_iterator_,@function
InterleaveIterable_iterator_:           # @InterleaveIterable_iterator_
	.cfi_startproc
# %bb.0:
	pushq	%rbp
	.cfi_def_cfa_offset 16
	pushq	%r15
	.cfi_def_cfa_offset 24
	pushq	%r14
	.cfi_def_cfa_offset 32
	pushq	%r13
	.cfi_def_cfa_offset 40
	pushq	%r12
	.cfi_def_cfa_offset 48
	pushq	%rbx
	.cfi_def_cfa_offset 56
	subq	$392, %rsp                      # imm = 0x188
	.cfi_def_cfa_offset 448
	.cfi_offset %rbx, -56
	.cfi_offset %r12, -48
	.cfi_offset %r13, -40
	.cfi_offset %r14, -32
	.cfi_offset %r15, -24
	.cfi_offset %rbp, -16
	movq	%rdx, %r14
	movq	%rsi, %r12
	movq	%rdi, 64(%rsp)                  # 8-byte Spill
	movq	40(%rsi), %rax
	movabsq	$4936782714255954462, %rcx      # imm = 0x4482F9B8F083D21E
	imulq	8(%rsi), %rcx
	movq	%rcx, %rsi
	shrq	$32, %rsi
	xorq	%rcx, %rsi
	andq	16(%r12), %rsi
	movslq	(%rax,%rsi,4), %rax
	movq	%rax, 16(%rsp)                  # 8-byte Spill
	movq	(%r12,%rax,8), %rax
	leaq	232(%rsp), %rdi
	movq	%rdx, %rsi
	movq	%rdx, 24(%rsp)                  # 8-byte Spill
	callq	*(%rax)
	movslq	256(%rsp), %r13
	movq	248(%rsp), %rbp
	movq	232(%rsp), %rbx
	movq	240(%rsp), %r15
	leaq	8(%rsp), %r8
	movq	%rbx, %rdi
	movq	%r15, %rsi
	movq	%rbp, %rdx
	movl	%r13d, %ecx
	callq	*80(%rbx,%r13,8)
	leaq	360(%rsp), %rdi
	movq	%rbx, %rsi
	movq	%r15, %rdx
	movq	%rbp, %rcx
	movl	%r13d, %r8d
	movq	%rbx, %r9
	leaq	8(%rsp), %r10
	pushq	%r10
	.cfi_adjust_cfa_offset 8
	pushq	%r13
	.cfi_adjust_cfa_offset 8
	pushq	%rbp
	.cfi_adjust_cfa_offset 8
	pushq	%r15
	.cfi_adjust_cfa_offset 8
	callq	*%rax
	addq	$32, %rsp
	.cfi_adjust_cfa_offset -32
	movq	16(%rsp), %rax                  # 8-byte Reload
	movq	8(%r12,%rax,8), %rax
	leaq	200(%rsp), %rdi
	movq	%r14, %rsi
	callq	*(%rax)
	movslq	224(%rsp), %rbx
	movq	216(%rsp), %r15
	movq	200(%rsp), %r13
	movq	208(%rsp), %rbp
	movq	%r13, %rdi
	movq	%rbp, %rsi
	movq	%r15, %rdx
	movl	%ebx, %ecx
	leaq	8(%rsp), %r14
	movq	%r14, %r8
	callq	*80(%r13,%rbx,8)
	leaq	328(%rsp), %rdi
	movq	%r13, %rsi
	movq	%rbp, %rdx
	movq	%r15, %rcx
	movl	%ebx, %r8d
	movq	%r13, %r9
	pushq	%r14
	.cfi_adjust_cfa_offset 8
	pushq	%rbx
	.cfi_adjust_cfa_offset 8
	pushq	%r15
	.cfi_adjust_cfa_offset 8
	pushq	%rbp
	.cfi_adjust_cfa_offset 8
	callq	*%rax
	addq	$32, %rsp
	.cfi_adjust_cfa_offset -32
	movq	%fs:0, %rax
	leaq	current_ptr@TPOFF(%rax), %rsi
	movl	$72, %edi
	callq	bump_malloc_inner@PLT
	movq	InterleaveIterator@GOTPCREL(%rip), %rcx
	movq	%rcx, 72(%rsp)
	movq	%rax, 80(%rsp)
	movl	$9, 96(%rsp)
	movq	16(%rsp), %r14                  # 8-byte Reload
	movq	(%r12,%r14,8), %rax
	leaq	168(%rsp), %rdi
	movq	24(%rsp), %rsi                  # 8-byte Reload
	callq	*(%rax)
	movslq	192(%rsp), %rbx
	movq	184(%rsp), %r15
	movq	168(%rsp), %r13
	movq	176(%rsp), %rbp
	movq	%r13, %rdi
	movq	%rbp, %rsi
	movq	%r15, %rdx
	movl	%ebx, %ecx
	leaq	8(%rsp), %r8
	callq	*80(%r13,%rbx,8)
	leaq	296(%rsp), %rdi
	movq	%r13, %rsi
	movq	%rbp, %rdx
	movq	%r15, %rcx
	movl	%ebx, %r8d
	movq	%r13, %r9
	leaq	8(%rsp), %r13
	pushq	%r13
	.cfi_adjust_cfa_offset 8
	pushq	%rbx
	.cfi_adjust_cfa_offset 8
	pushq	%r15
	.cfi_adjust_cfa_offset 8
	pushq	%rbp
	.cfi_adjust_cfa_offset 8
	callq	*%rax
	addq	$32, %rsp
	.cfi_adjust_cfa_offset -32
	movq	312(%rsp), %rax
	movq	%rax, 56(%rsp)                  # 8-byte Spill
	movq	296(%rsp), %rbp
	movq	304(%rsp), %rax
	movq	%rax, 48(%rsp)                  # 8-byte Spill
	movq	8(%r12,%r14,8), %rax
	leaq	136(%rsp), %rdi
	movq	24(%rsp), %rsi                  # 8-byte Reload
	callq	*(%rax)
	movslq	160(%rsp), %rbx
	movq	152(%rsp), %r14
	movq	136(%rsp), %r15
	movq	144(%rsp), %r12
	movq	%r15, %rdi
	movq	%r12, %rsi
	movq	%r14, %rdx
	movl	%ebx, %ecx
	movq	%r13, %r8
	callq	*80(%r15,%rbx,8)
	leaq	264(%rsp), %rdi
	movq	%r15, %rsi
	movq	%r12, %rdx
	movq	%r14, %rcx
	movl	%ebx, %r8d
	movq	%r15, %r9
	pushq	%r13
	.cfi_adjust_cfa_offset 8
	pushq	%rbx
	.cfi_adjust_cfa_offset 8
	pushq	%r14
	.cfi_adjust_cfa_offset 8
	pushq	%r12
	.cfi_adjust_cfa_offset 8
	callq	*%rax
	addq	$32, %rsp
	.cfi_adjust_cfa_offset -32
	movq	280(%rsp), %rax
	movq	%rax, 24(%rsp)                  # 8-byte Spill
	movq	264(%rsp), %rbx
	movq	272(%rsp), %rax
	movq	%rax, 16(%rsp)                  # 8-byte Spill
	movq	40(%rbx), %rax
	movabsq	$-933084275656658555, %rcx      # imm = 0xF30D04CB83FB7185
	movq	8(%rbx), %rdx
	imulq	%rcx, %rdx
	movq	%rdx, %rsi
	shrq	$32, %rsi
	xorq	%rdx, %rsi
	andq	16(%rbx), %rsi
	movq	40(%rbp), %rdx
	imulq	8(%rbp), %rcx
	movq	%rcx, %rdi
	shrq	$32, %rdi
	xorq	%rcx, %rdi
	andq	16(%rbp), %rdi
	movl	(%rdx,%rdi,4), %ecx
	movq	%rcx, 40(%rsp)                  # 8-byte Spill
	movl	(%rax,%rsi,4), %eax
	movq	%rax, 32(%rsp)                  # 8-byte Spill
	movq	72(%rsp), %r14
	movq	80(%rsp), %r15
	movq	88(%rsp), %r12
	movslq	96(%rsp), %r13
	movq	_parameterization_IntIterator@GOTPCREL(%rip), %rax
	movq	%rax, 120(%rsp)
	movq	%rax, 128(%rsp)
	movq	24(%r14,%r13,8), %rax
	movq	%rbp, 104(%rsp)
	movq	%rbx, 112(%rsp)
	leaq	104(%rsp), %r8
	movq	%r14, %rdi
	movq	%r15, %rsi
	movq	%r12, %rdx
	movl	%r13d, %ecx
	callq	*%rax
	subq	$8, %rsp
	.cfi_adjust_cfa_offset 8
	leaq	128(%rsp), %r10
	movq	%r14, %rdi
	movq	%r15, %rsi
	movq	%r12, %rdx
	movl	%r13d, %ecx
	movq	%r14, %r8
	movq	%r15, %r9
	pushq	40(%rsp)                        # 8-byte Folded Reload
	.cfi_adjust_cfa_offset 8
	pushq	40(%rsp)                        # 8-byte Folded Reload
	.cfi_adjust_cfa_offset 8
	pushq	40(%rsp)                        # 8-byte Folded Reload
	.cfi_adjust_cfa_offset 8
	pushq	%rbx
	.cfi_adjust_cfa_offset 8
	pushq	80(%rsp)                        # 8-byte Folded Reload
	.cfi_adjust_cfa_offset 8
	pushq	104(%rsp)                       # 8-byte Folded Reload
	.cfi_adjust_cfa_offset 8
	pushq	104(%rsp)                       # 8-byte Folded Reload
	.cfi_adjust_cfa_offset 8
	pushq	%rbp
	.cfi_adjust_cfa_offset 8
	pushq	%r10
	.cfi_adjust_cfa_offset 8
	pushq	%r13
	.cfi_adjust_cfa_offset 8
	pushq	%r12
	.cfi_adjust_cfa_offset 8
	callq	*%rax
	addq	$96, %rsp
	.cfi_adjust_cfa_offset -96
	movq	40(%r14), %rax
	movabsq	$8673632051301757104, %rcx      # imm = 0x785EEE655248B0B0
	imulq	8(%r14), %rcx
	movq	%rcx, %rdx
	shrq	$32, %rdx
	xorq	%rcx, %rdx
	andq	16(%r14), %rdx
	movl	(%rax,%rdx,4), %ecx
	movq	64(%rsp), %rax                  # 8-byte Reload
	movq	%r12, 16(%rax)
	movq	%r15, 8(%rax)
	movq	%r14, (%rax)
	movl	%ecx, 24(%rax)
	addq	$392, %rsp                      # imm = 0x188
	.cfi_def_cfa_offset 56
	popq	%rbx
	.cfi_def_cfa_offset 48
	popq	%r12
	.cfi_def_cfa_offset 40
	popq	%r13
	.cfi_def_cfa_offset 32
	popq	%r14
	.cfi_def_cfa_offset 24
	popq	%r15
	.cfi_def_cfa_offset 16
	popq	%rbp
	.cfi_def_cfa_offset 8
	retq
.Lfunc_end213:
	.size	InterleaveIterable_iterator_, .Lfunc_end213-InterleaveIterable_iterator_
	.cfi_endproc
                                        # -- End function
	.globl	_size_InterleaveIterator        # -- Begin function _size_InterleaveIterator
	.p2align	4, 0x90
	.type	_size_InterleaveIterator,@function
_size_InterleaveIterator:               # @_size_InterleaveIterator
# %bb.0:
	movl	$72, %eax
	movl	$8, %edx
	retq
.Lfunc_end214:
	.size	_size_InterleaveIterator, .Lfunc_end214-_size_InterleaveIterator
                                        # -- End function
	.globl	InterleaveIterator_B_init_firstIntIterator_secondIntIterator # -- Begin function InterleaveIterator_B_init_firstIntIterator_secondIntIterator
	.p2align	4, 0x90
	.type	InterleaveIterator_B_init_firstIntIterator_secondIntIterator,@function
InterleaveIterator_B_init_firstIntIterator_secondIntIterator: # @InterleaveIterator_B_init_firstIntIterator_secondIntIterator
# %bb.0:
	movq	112(%rdi), %rax
	retq
.Lfunc_end215:
	.size	InterleaveIterator_B_init_firstIntIterator_secondIntIterator, .Lfunc_end215-InterleaveIterator_B_init_firstIntIterator_secondIntIterator
                                        # -- End function
	.globl	InterleaveIterator_B_next_      # -- Begin function InterleaveIterator_B_next_
	.p2align	4, 0x90
	.type	InterleaveIterator_B_next_,@function
InterleaveIterator_B_next_:             # @InterleaveIterator_B_next_
# %bb.0:
	movq	120(%rdi), %rax
	retq
.Lfunc_end216:
	.size	InterleaveIterator_B_next_, .Lfunc_end216-InterleaveIterator_B_next_
                                        # -- End function
	.globl	InterleaveIterator_init_firstIntIterator_secondIntIterator # -- Begin function InterleaveIterator_init_firstIntIterator_secondIntIterator
	.p2align	4, 0x90
	.type	InterleaveIterator_init_firstIntIterator_secondIntIterator,@function
InterleaveIterator_init_firstIntIterator_secondIntIterator: # @InterleaveIterator_init_firstIntIterator_secondIntIterator
	.cfi_startproc
# %bb.0:
	pushq	%rbp
	.cfi_def_cfa_offset 16
	pushq	%r15
	.cfi_def_cfa_offset 24
	pushq	%r14
	.cfi_def_cfa_offset 32
	pushq	%r13
	.cfi_def_cfa_offset 40
	pushq	%r12
	.cfi_def_cfa_offset 48
	pushq	%rbx
	.cfi_def_cfa_offset 56
	pushq	%rax
	.cfi_def_cfa_offset 64
	.cfi_offset %rbx, -56
	.cfi_offset %r12, -48
	.cfi_offset %r13, -40
	.cfi_offset %r14, -32
	.cfi_offset %r15, -24
	.cfi_offset %rbp, -16
	movq	%rsi, %rbx
	movq	%rdi, %r14
	movq	128(%rsp), %rax
	movq	%rax, (%rsp)                    # 8-byte Spill
	movq	136(%rsp), %r12
	movq	120(%rsp), %r13
	movq	96(%rsp), %rdx
	movq	104(%rsp), %rcx
	movq	88(%rsp), %rsi
	movq	40(%rdi), %rax
	movabsq	$-3924664358248524505, %rdi     # imm = 0xC988CA8F57F5D527
	imulq	8(%r14), %rdi
	movq	%rdi, %r8
	shrq	$32, %r8
	xorq	%rdi, %r8
	andq	16(%r14), %r8
	movslq	(%rax,%r8,4), %rbp
	movq	40(%rsi), %rax
	movabsq	$-933084275656658555, %r15      # imm = 0xF30D04CB83FB7185
	movq	8(%rsi), %rdi
	imulq	%r15, %rdi
	movq	%rdi, %r8
	shrq	$32, %r8
	xorq	%rdi, %r8
	andq	16(%rsi), %r8
	movl	(%rax,%r8,4), %r8d
	movq	(%r14,%rbp,8), %rax
	movq	%rbx, %rdi
	callq	*8(%rax)
	movq	40(%r13), %rax
	imulq	8(%r13), %r15
	movq	%r15, %rcx
	shrq	$32, %rcx
	xorq	%r15, %rcx
	andq	16(%r13), %rcx
	movl	(%rax,%rcx,4), %r8d
	movq	8(%r14,%rbp,8), %rax
	movq	%rbx, %rdi
	movq	%r13, %rsi
	movq	(%rsp), %rdx                    # 8-byte Reload
	movq	%r12, %rcx
	callq	*8(%rax)
	movq	16(%r14,%rbp,8), %rax
	movq	8(%rax), %rax
	movq	%rbx, %rdi
	movl	$1, %esi
	addq	$8, %rsp
	.cfi_def_cfa_offset 56
	popq	%rbx
	.cfi_def_cfa_offset 48
	popq	%r12
	.cfi_def_cfa_offset 40
	popq	%r13
	.cfi_def_cfa_offset 32
	popq	%r14
	.cfi_def_cfa_offset 24
	popq	%r15
	.cfi_def_cfa_offset 16
	popq	%rbp
	.cfi_def_cfa_offset 8
	jmpq	*%rax                           # TAILCALL
.Lfunc_end217:
	.size	InterleaveIterator_init_firstIntIterator_secondIntIterator, .Lfunc_end217-InterleaveIterator_init_firstIntIterator_secondIntIterator
	.cfi_endproc
                                        # -- End function
	.globl	InterleaveIterator_next_        # -- Begin function InterleaveIterator_next_
	.p2align	4, 0x90
	.type	InterleaveIterator_next_,@function
InterleaveIterator_next_:               # @InterleaveIterator_next_
	.cfi_startproc
# %bb.0:
	pushq	%r15
	.cfi_def_cfa_offset 16
	pushq	%r14
	.cfi_def_cfa_offset 24
	pushq	%r13
	.cfi_def_cfa_offset 32
	pushq	%r12
	.cfi_def_cfa_offset 40
	pushq	%rbx
	.cfi_def_cfa_offset 48
	subq	$48, %rsp
	.cfi_def_cfa_offset 96
	.cfi_offset %rbx, -48
	.cfi_offset %r12, -40
	.cfi_offset %r13, -32
	.cfi_offset %r14, -24
	.cfi_offset %r15, -16
	movq	%rsi, %rbx
	movq	%rdi, %r14
	movq	40(%rdi), %rax
	movabsq	$-3924664358248524505, %rcx     # imm = 0xC988CA8F57F5D527
	imulq	8(%rdi), %rcx
	movq	%rcx, %rdx
	shrq	$32, %rdx
	xorq	%rcx, %rdx
	andq	16(%rdi), %rdx
	movslq	(%rax,%rdx,4), %r12
	leaq	(%rdi,%r12,8), %r15
	movq	16(%rdi,%r12,8), %rax
	movq	%rsi, %rdi
	callq	*(%rax)
	movq	16(%r14,%r12,8), %rcx
	movq	8(%rcx), %rcx
	movq	%rbx, %rdi
	testb	$1, %al
	je	.LBB218_2
# %bb.1:
	xorl	%esi, %esi
	callq	*%rcx
	jmp	.LBB218_3
.LBB218_2:
	movl	$1, %esi
	callq	*%rcx
	addq	$8, %r15
.LBB218_3:
	movq	(%r15), %rax
	leaq	16(%rsp), %rdi
	movq	%rbx, %rsi
	callq	*(%rax)
	movslq	40(%rsp), %rbx
	movq	32(%rsp), %r14
	movq	16(%rsp), %r15
	movq	24(%rsp), %r12
	leaq	8(%rsp), %r13
	movq	%r15, %rdi
	movq	%r12, %rsi
	movq	%r14, %rdx
	movl	%ebx, %ecx
	movq	%r13, %r8
	callq	*(%r15,%rbx,8)
	subq	$8, %rsp
	.cfi_adjust_cfa_offset 8
	movq	%r15, %rdi
	movq	%r12, %rsi
	movq	%r14, %rdx
	movl	%ebx, %ecx
	movq	%r15, %r8
	movq	%r12, %r9
	pushq	%r13
	.cfi_adjust_cfa_offset 8
	pushq	%rbx
	.cfi_adjust_cfa_offset 8
	pushq	%r14
	.cfi_adjust_cfa_offset 8
	callq	*%rax
	addq	$80, %rsp
	.cfi_adjust_cfa_offset -80
	popq	%rbx
	.cfi_def_cfa_offset 40
	popq	%r12
	.cfi_def_cfa_offset 32
	popq	%r13
	.cfi_def_cfa_offset 24
	popq	%r14
	.cfi_def_cfa_offset 16
	popq	%r15
	.cfi_def_cfa_offset 8
	retq
.Lfunc_end218:
	.size	InterleaveIterator_next_, .Lfunc_end218-InterleaveIterator_next_
	.cfi_endproc
                                        # -- End function
	.globl	InterleaveIterator_getter_on_first # -- Begin function InterleaveIterator_getter_on_first
	.p2align	4, 0x90
	.type	InterleaveIterator_getter_on_first,@function
InterleaveIterator_getter_on_first:     # @InterleaveIterator_getter_on_first
# %bb.0:
	movzbl	64(%rdi), %eax
	retq
.Lfunc_end219:
	.size	InterleaveIterator_getter_on_first, .Lfunc_end219-InterleaveIterator_getter_on_first
                                        # -- End function
	.globl	InterleaveIterator_setter_on_first # -- Begin function InterleaveIterator_setter_on_first
	.p2align	4, 0x90
	.type	InterleaveIterator_setter_on_first,@function
InterleaveIterator_setter_on_first:     # @InterleaveIterator_setter_on_first
# %bb.0:
	andl	$1, %esi
	movb	%sil, 64(%rdi)
	retq
.Lfunc_end220:
	.size	InterleaveIterator_setter_on_first, .Lfunc_end220-InterleaveIterator_setter_on_first
                                        # -- End function
	.globl	InterleaveIterator_getter_second # -- Begin function InterleaveIterator_getter_second
	.p2align	4, 0x90
	.type	InterleaveIterator_getter_second,@function
InterleaveIterator_getter_second:       # @InterleaveIterator_getter_second
# %bb.0:
	movq	%rdi, %rax
	movq	32(%rsi), %rcx
	movq	40(%rsi), %rdx
	movq	48(%rsi), %rdi
	movl	56(%rsi), %esi
	movl	%esi, 24(%rax)
	movq	%rdi, 16(%rax)
	movq	%rdx, 8(%rax)
	movq	%rcx, (%rax)
	retq
.Lfunc_end221:
	.size	InterleaveIterator_getter_second, .Lfunc_end221-InterleaveIterator_getter_second
                                        # -- End function
	.globl	InterleaveIterator_setter_second # -- Begin function InterleaveIterator_setter_second
	.p2align	4, 0x90
	.type	InterleaveIterator_setter_second,@function
InterleaveIterator_setter_second:       # @InterleaveIterator_setter_second
# %bb.0:
	movq	%rsi, 32(%rdi)
	movq	%rdx, 40(%rdi)
	movq	%rcx, 48(%rdi)
	movl	%r8d, 56(%rdi)
	retq
.Lfunc_end222:
	.size	InterleaveIterator_setter_second, .Lfunc_end222-InterleaveIterator_setter_second
                                        # -- End function
	.globl	InterleaveIterator_getter_first # -- Begin function InterleaveIterator_getter_first
	.p2align	4, 0x90
	.type	InterleaveIterator_getter_first,@function
InterleaveIterator_getter_first:        # @InterleaveIterator_getter_first
# %bb.0:
	movq	%rdi, %rax
	movq	(%rsi), %rcx
	movq	8(%rsi), %rdx
	movq	16(%rsi), %rdi
	movl	24(%rsi), %esi
	movl	%esi, 24(%rax)
	movq	%rdi, 16(%rax)
	movq	%rdx, 8(%rax)
	movq	%rcx, (%rax)
	retq
.Lfunc_end223:
	.size	InterleaveIterator_getter_first, .Lfunc_end223-InterleaveIterator_getter_first
                                        # -- End function
	.globl	InterleaveIterator_setter_first # -- Begin function InterleaveIterator_setter_first
	.p2align	4, 0x90
	.type	InterleaveIterator_setter_first,@function
InterleaveIterator_setter_first:        # @InterleaveIterator_setter_first
# %bb.0:
	movq	%rsi, (%rdi)
	movq	%rdx, 8(%rdi)
	movq	%rcx, 16(%rdi)
	movl	%r8d, 24(%rdi)
	retq
.Lfunc_end224:
	.size	InterleaveIterator_setter_first, .Lfunc_end224-InterleaveIterator_setter_first
                                        # -- End function
	.globl	InterleaveIterable_getter_second # -- Begin function InterleaveIterable_getter_second
	.p2align	4, 0x90
	.type	InterleaveIterable_getter_second,@function
InterleaveIterable_getter_second:       # @InterleaveIterable_getter_second
# %bb.0:
	movq	%rdi, %rax
	movq	32(%rsi), %rcx
	movq	40(%rsi), %rdx
	movq	48(%rsi), %rdi
	movl	56(%rsi), %esi
	movl	%esi, 24(%rax)
	movq	%rdi, 16(%rax)
	movq	%rdx, 8(%rax)
	movq	%rcx, (%rax)
	retq
.Lfunc_end225:
	.size	InterleaveIterable_getter_second, .Lfunc_end225-InterleaveIterable_getter_second
                                        # -- End function
	.globl	InterleaveIterable_setter_second # -- Begin function InterleaveIterable_setter_second
	.p2align	4, 0x90
	.type	InterleaveIterable_setter_second,@function
InterleaveIterable_setter_second:       # @InterleaveIterable_setter_second
# %bb.0:
	movq	%rsi, 32(%rdi)
	movq	%rdx, 40(%rdi)
	movq	%rcx, 48(%rdi)
	movl	%r8d, 56(%rdi)
	retq
.Lfunc_end226:
	.size	InterleaveIterable_setter_second, .Lfunc_end226-InterleaveIterable_setter_second
                                        # -- End function
	.globl	InterleaveIterable_getter_first # -- Begin function InterleaveIterable_getter_first
	.p2align	4, 0x90
	.type	InterleaveIterable_getter_first,@function
InterleaveIterable_getter_first:        # @InterleaveIterable_getter_first
# %bb.0:
	movq	%rdi, %rax
	movq	(%rsi), %rcx
	movq	8(%rsi), %rdx
	movq	16(%rsi), %rdi
	movl	24(%rsi), %esi
	movl	%esi, 24(%rax)
	movq	%rdi, 16(%rax)
	movq	%rdx, 8(%rax)
	movq	%rcx, (%rax)
	retq
.Lfunc_end227:
	.size	InterleaveIterable_getter_first, .Lfunc_end227-InterleaveIterable_getter_first
                                        # -- End function
	.globl	InterleaveIterable_setter_first # -- Begin function InterleaveIterable_setter_first
	.p2align	4, 0x90
	.type	InterleaveIterable_setter_first,@function
InterleaveIterable_setter_first:        # @InterleaveIterable_setter_first
# %bb.0:
	movq	%rsi, (%rdi)
	movq	%rdx, 8(%rdi)
	movq	%rcx, 16(%rdi)
	movl	%r8d, 24(%rdi)
	retq
.Lfunc_end228:
	.size	InterleaveIterable_setter_first, .Lfunc_end228-InterleaveIterable_setter_first
                                        # -- End function
	.globl	_size_ChainIterable             # -- Begin function _size_ChainIterable
	.p2align	4, 0x90
	.type	_size_ChainIterable,@function
_size_ChainIterable:                    # @_size_ChainIterable
# %bb.0:
	movl	$64, %eax
	movl	$8, %edx
	retq
.Lfunc_end229:
	.size	_size_ChainIterable, .Lfunc_end229-_size_ChainIterable
                                        # -- End function
	.globl	ChainIterable_B_init_firstIntIterable_secondIntIterable # -- Begin function ChainIterable_B_init_firstIntIterable_secondIntIterable
	.p2align	4, 0x90
	.type	ChainIterable_B_init_firstIntIterable_secondIntIterable,@function
ChainIterable_B_init_firstIntIterable_secondIntIterable: # @ChainIterable_B_init_firstIntIterable_secondIntIterable
# %bb.0:
	movq	184(%rdi), %rax
	retq
.Lfunc_end230:
	.size	ChainIterable_B_init_firstIntIterable_secondIntIterable, .Lfunc_end230-ChainIterable_B_init_firstIntIterable_secondIntIterable
                                        # -- End function
	.globl	ChainIterable_B_each_fFunctionPtri32_to_Nothing # -- Begin function ChainIterable_B_each_fFunctionPtri32_to_Nothing
	.p2align	4, 0x90
	.type	ChainIterable_B_each_fFunctionPtri32_to_Nothing,@function
ChainIterable_B_each_fFunctionPtri32_to_Nothing: # @ChainIterable_B_each_fFunctionPtri32_to_Nothing
# %bb.0:
	movq	192(%rdi), %rax
	retq
.Lfunc_end231:
	.size	ChainIterable_B_each_fFunctionPtri32_to_Nothing, .Lfunc_end231-ChainIterable_B_each_fFunctionPtri32_to_Nothing
                                        # -- End function
	.globl	ChainIterable_B_reduce_initial_valPtri32_fFunctionPtri32._Ptri32_to_Ptri32 # -- Begin function ChainIterable_B_reduce_initial_valPtri32_fFunctionPtri32._Ptri32_to_Ptri32
	.p2align	4, 0x90
	.type	ChainIterable_B_reduce_initial_valPtri32_fFunctionPtri32._Ptri32_to_Ptri32,@function
ChainIterable_B_reduce_initial_valPtri32_fFunctionPtri32._Ptri32_to_Ptri32: # @ChainIterable_B_reduce_initial_valPtri32_fFunctionPtri32._Ptri32_to_Ptri32
# %bb.0:
	movq	200(%rdi), %rax
	retq
.Lfunc_end232:
	.size	ChainIterable_B_reduce_initial_valPtri32_fFunctionPtri32._Ptri32_to_Ptri32, .Lfunc_end232-ChainIterable_B_reduce_initial_valPtri32_fFunctionPtri32._Ptri32_to_Ptri32
                                        # -- End function
	.globl	ChainIterable_B_all_fFunctionPtri32_to_Ptri1 # -- Begin function ChainIterable_B_all_fFunctionPtri32_to_Ptri1
	.p2align	4, 0x90
	.type	ChainIterable_B_all_fFunctionPtri32_to_Ptri1,@function
ChainIterable_B_all_fFunctionPtri32_to_Ptri1: # @ChainIterable_B_all_fFunctionPtri32_to_Ptri1
# %bb.0:
	movq	208(%rdi), %rax
	retq
.Lfunc_end233:
	.size	ChainIterable_B_all_fFunctionPtri32_to_Ptri1, .Lfunc_end233-ChainIterable_B_all_fFunctionPtri32_to_Ptri1
                                        # -- End function
	.globl	ChainIterable_B_any_fFunctionPtri32_to_Ptri1 # -- Begin function ChainIterable_B_any_fFunctionPtri32_to_Ptri1
	.p2align	4, 0x90
	.type	ChainIterable_B_any_fFunctionPtri32_to_Ptri1,@function
ChainIterable_B_any_fFunctionPtri32_to_Ptri1: # @ChainIterable_B_any_fFunctionPtri32_to_Ptri1
# %bb.0:
	movq	216(%rdi), %rax
	retq
.Lfunc_end234:
	.size	ChainIterable_B_any_fFunctionPtri32_to_Ptri1, .Lfunc_end234-ChainIterable_B_any_fFunctionPtri32_to_Ptri1
                                        # -- End function
	.globl	ChainIterable_B_map_fFunctionPtri32_to_Ptri32 # -- Begin function ChainIterable_B_map_fFunctionPtri32_to_Ptri32
	.p2align	4, 0x90
	.type	ChainIterable_B_map_fFunctionPtri32_to_Ptri32,@function
ChainIterable_B_map_fFunctionPtri32_to_Ptri32: # @ChainIterable_B_map_fFunctionPtri32_to_Ptri32
# %bb.0:
	movq	224(%rdi), %rax
	retq
.Lfunc_end235:
	.size	ChainIterable_B_map_fFunctionPtri32_to_Ptri32, .Lfunc_end235-ChainIterable_B_map_fFunctionPtri32_to_Ptri32
                                        # -- End function
	.globl	ChainIterable_B_filter_fFunctionPtri32_to_Ptri1 # -- Begin function ChainIterable_B_filter_fFunctionPtri32_to_Ptri1
	.p2align	4, 0x90
	.type	ChainIterable_B_filter_fFunctionPtri32_to_Ptri1,@function
ChainIterable_B_filter_fFunctionPtri32_to_Ptri1: # @ChainIterable_B_filter_fFunctionPtri32_to_Ptri1
# %bb.0:
	movq	232(%rdi), %rax
	retq
.Lfunc_end236:
	.size	ChainIterable_B_filter_fFunctionPtri32_to_Ptri1, .Lfunc_end236-ChainIterable_B_filter_fFunctionPtri32_to_Ptri1
                                        # -- End function
	.globl	ChainIterable_B_chain_otherIntIterable # -- Begin function ChainIterable_B_chain_otherIntIterable
	.p2align	4, 0x90
	.type	ChainIterable_B_chain_otherIntIterable,@function
ChainIterable_B_chain_otherIntIterable: # @ChainIterable_B_chain_otherIntIterable
# %bb.0:
	movq	240(%rdi), %rax
	retq
.Lfunc_end237:
	.size	ChainIterable_B_chain_otherIntIterable, .Lfunc_end237-ChainIterable_B_chain_otherIntIterable
                                        # -- End function
	.globl	ChainIterable_B_interleave_otherIntIterable # -- Begin function ChainIterable_B_interleave_otherIntIterable
	.p2align	4, 0x90
	.type	ChainIterable_B_interleave_otherIntIterable,@function
ChainIterable_B_interleave_otherIntIterable: # @ChainIterable_B_interleave_otherIntIterable
# %bb.0:
	movq	248(%rdi), %rax
	retq
.Lfunc_end238:
	.size	ChainIterable_B_interleave_otherIntIterable, .Lfunc_end238-ChainIterable_B_interleave_otherIntIterable
                                        # -- End function
	.globl	ChainIterable_B_zip_otherIntIterable # -- Begin function ChainIterable_B_zip_otherIntIterable
	.p2align	4, 0x90
	.type	ChainIterable_B_zip_otherIntIterable,@function
ChainIterable_B_zip_otherIntIterable:   # @ChainIterable_B_zip_otherIntIterable
# %bb.0:
	movq	256(%rdi), %rax
	retq
.Lfunc_end239:
	.size	ChainIterable_B_zip_otherIntIterable, .Lfunc_end239-ChainIterable_B_zip_otherIntIterable
                                        # -- End function
	.globl	ChainIterable_B_product_otherIntIterable # -- Begin function ChainIterable_B_product_otherIntIterable
	.p2align	4, 0x90
	.type	ChainIterable_B_product_otherIntIterable,@function
ChainIterable_B_product_otherIntIterable: # @ChainIterable_B_product_otherIntIterable
# %bb.0:
	movq	264(%rdi), %rax
	retq
.Lfunc_end240:
	.size	ChainIterable_B_product_otherIntIterable, .Lfunc_end240-ChainIterable_B_product_otherIntIterable
                                        # -- End function
	.globl	ChainIterable_B_iterator_       # -- Begin function ChainIterable_B_iterator_
	.p2align	4, 0x90
	.type	ChainIterable_B_iterator_,@function
ChainIterable_B_iterator_:              # @ChainIterable_B_iterator_
# %bb.0:
	movq	272(%rdi), %rax
	retq
.Lfunc_end241:
	.size	ChainIterable_B_iterator_, .Lfunc_end241-ChainIterable_B_iterator_
                                        # -- End function
	.globl	ChainIterable_init_firstIntIterable_secondIntIterable # -- Begin function ChainIterable_init_firstIntIterable_secondIntIterable
	.p2align	4, 0x90
	.type	ChainIterable_init_firstIntIterable_secondIntIterable,@function
ChainIterable_init_firstIntIterable_secondIntIterable: # @ChainIterable_init_firstIntIterable_secondIntIterable
	.cfi_startproc
# %bb.0:
	pushq	%rbp
	.cfi_def_cfa_offset 16
	pushq	%r15
	.cfi_def_cfa_offset 24
	pushq	%r14
	.cfi_def_cfa_offset 32
	pushq	%r13
	.cfi_def_cfa_offset 40
	pushq	%r12
	.cfi_def_cfa_offset 48
	pushq	%rbx
	.cfi_def_cfa_offset 56
	pushq	%rax
	.cfi_def_cfa_offset 64
	.cfi_offset %rbx, -56
	.cfi_offset %r12, -48
	.cfi_offset %r13, -40
	.cfi_offset %r14, -32
	.cfi_offset %r15, -24
	.cfi_offset %rbp, -16
	movq	%rsi, %rbx
	movq	%rdi, %r12
	movq	128(%rsp), %rax
	movq	%rax, (%rsp)                    # 8-byte Spill
	movq	136(%rsp), %r15
	movq	120(%rsp), %r13
	movq	96(%rsp), %rdx
	movq	104(%rsp), %rcx
	movq	88(%rsp), %rsi
	movq	40(%rdi), %rax
	movabsq	$-2370247058431047815, %rdi     # imm = 0xDF1B30DBC44D8779
	imulq	8(%r12), %rdi
	movq	%rdi, %r8
	shrq	$32, %r8
	xorq	%rdi, %r8
	andq	16(%r12), %r8
	movslq	(%rax,%r8,4), %rbp
	movq	40(%rsi), %rax
	movabsq	$-7984962120415158575, %r14     # imm = 0x912FB741F3B45ED1
	movq	8(%rsi), %rdi
	imulq	%r14, %rdi
	movq	%rdi, %r8
	shrq	$32, %r8
	xorq	%rdi, %r8
	andq	16(%rsi), %r8
	movl	(%rax,%r8,4), %r8d
	movq	(%r12,%rbp,8), %rax
	movq	%rbx, %rdi
	callq	*8(%rax)
	movq	40(%r13), %rax
	imulq	8(%r13), %r14
	movq	%r14, %rcx
	shrq	$32, %rcx
	xorq	%r14, %rcx
	andq	16(%r13), %rcx
	movl	(%rax,%rcx,4), %r8d
	movq	8(%r12,%rbp,8), %rax
	movq	8(%rax), %rax
	movq	%rbx, %rdi
	movq	%r13, %rsi
	movq	(%rsp), %rdx                    # 8-byte Reload
	movq	%r15, %rcx
	addq	$8, %rsp
	.cfi_def_cfa_offset 56
	popq	%rbx
	.cfi_def_cfa_offset 48
	popq	%r12
	.cfi_def_cfa_offset 40
	popq	%r13
	.cfi_def_cfa_offset 32
	popq	%r14
	.cfi_def_cfa_offset 24
	popq	%r15
	.cfi_def_cfa_offset 16
	popq	%rbp
	.cfi_def_cfa_offset 8
	jmpq	*%rax                           # TAILCALL
.Lfunc_end242:
	.size	ChainIterable_init_firstIntIterable_secondIntIterable, .Lfunc_end242-ChainIterable_init_firstIntIterable_secondIntIterable
	.cfi_endproc
                                        # -- End function
	.globl	ChainIterable_iterator_         # -- Begin function ChainIterable_iterator_
	.p2align	4, 0x90
	.type	ChainIterable_iterator_,@function
ChainIterable_iterator_:                # @ChainIterable_iterator_
	.cfi_startproc
# %bb.0:
	pushq	%rbp
	.cfi_def_cfa_offset 16
	pushq	%r15
	.cfi_def_cfa_offset 24
	pushq	%r14
	.cfi_def_cfa_offset 32
	pushq	%r13
	.cfi_def_cfa_offset 40
	pushq	%r12
	.cfi_def_cfa_offset 48
	pushq	%rbx
	.cfi_def_cfa_offset 56
	subq	$392, %rsp                      # imm = 0x188
	.cfi_def_cfa_offset 448
	.cfi_offset %rbx, -56
	.cfi_offset %r12, -48
	.cfi_offset %r13, -40
	.cfi_offset %r14, -32
	.cfi_offset %r15, -24
	.cfi_offset %rbp, -16
	movq	%rdx, %r14
	movq	%rsi, %r12
	movq	%rdi, 64(%rsp)                  # 8-byte Spill
	movq	40(%rsi), %rax
	movabsq	$-2370247058431047815, %rcx     # imm = 0xDF1B30DBC44D8779
	imulq	8(%rsi), %rcx
	movq	%rcx, %rsi
	shrq	$32, %rsi
	xorq	%rcx, %rsi
	andq	16(%r12), %rsi
	movslq	(%rax,%rsi,4), %rax
	movq	%rax, 16(%rsp)                  # 8-byte Spill
	movq	(%r12,%rax,8), %rax
	leaq	232(%rsp), %rdi
	movq	%rdx, %rsi
	movq	%rdx, 24(%rsp)                  # 8-byte Spill
	callq	*(%rax)
	movslq	256(%rsp), %r13
	movq	248(%rsp), %rbp
	movq	232(%rsp), %rbx
	movq	240(%rsp), %r15
	leaq	8(%rsp), %r8
	movq	%rbx, %rdi
	movq	%r15, %rsi
	movq	%rbp, %rdx
	movl	%r13d, %ecx
	callq	*80(%rbx,%r13,8)
	leaq	360(%rsp), %rdi
	movq	%rbx, %rsi
	movq	%r15, %rdx
	movq	%rbp, %rcx
	movl	%r13d, %r8d
	movq	%rbx, %r9
	leaq	8(%rsp), %r10
	pushq	%r10
	.cfi_adjust_cfa_offset 8
	pushq	%r13
	.cfi_adjust_cfa_offset 8
	pushq	%rbp
	.cfi_adjust_cfa_offset 8
	pushq	%r15
	.cfi_adjust_cfa_offset 8
	callq	*%rax
	addq	$32, %rsp
	.cfi_adjust_cfa_offset -32
	movq	16(%rsp), %rax                  # 8-byte Reload
	movq	8(%r12,%rax,8), %rax
	leaq	200(%rsp), %rdi
	movq	%r14, %rsi
	callq	*(%rax)
	movslq	224(%rsp), %rbx
	movq	216(%rsp), %r15
	movq	200(%rsp), %r13
	movq	208(%rsp), %rbp
	movq	%r13, %rdi
	movq	%rbp, %rsi
	movq	%r15, %rdx
	movl	%ebx, %ecx
	leaq	8(%rsp), %r14
	movq	%r14, %r8
	callq	*80(%r13,%rbx,8)
	leaq	328(%rsp), %rdi
	movq	%r13, %rsi
	movq	%rbp, %rdx
	movq	%r15, %rcx
	movl	%ebx, %r8d
	movq	%r13, %r9
	pushq	%r14
	.cfi_adjust_cfa_offset 8
	pushq	%rbx
	.cfi_adjust_cfa_offset 8
	pushq	%r15
	.cfi_adjust_cfa_offset 8
	pushq	%rbp
	.cfi_adjust_cfa_offset 8
	callq	*%rax
	addq	$32, %rsp
	.cfi_adjust_cfa_offset -32
	movq	%fs:0, %rax
	leaq	current_ptr@TPOFF(%rax), %rsi
	movl	$72, %edi
	callq	bump_malloc_inner@PLT
	movq	ChainIterator@GOTPCREL(%rip), %rcx
	movq	%rcx, 72(%rsp)
	movq	%rax, 80(%rsp)
	movl	$9, 96(%rsp)
	movq	16(%rsp), %r14                  # 8-byte Reload
	movq	(%r12,%r14,8), %rax
	leaq	168(%rsp), %rdi
	movq	24(%rsp), %rsi                  # 8-byte Reload
	callq	*(%rax)
	movslq	192(%rsp), %rbx
	movq	184(%rsp), %r15
	movq	168(%rsp), %r13
	movq	176(%rsp), %rbp
	movq	%r13, %rdi
	movq	%rbp, %rsi
	movq	%r15, %rdx
	movl	%ebx, %ecx
	leaq	8(%rsp), %r8
	callq	*80(%r13,%rbx,8)
	leaq	296(%rsp), %rdi
	movq	%r13, %rsi
	movq	%rbp, %rdx
	movq	%r15, %rcx
	movl	%ebx, %r8d
	movq	%r13, %r9
	leaq	8(%rsp), %r13
	pushq	%r13
	.cfi_adjust_cfa_offset 8
	pushq	%rbx
	.cfi_adjust_cfa_offset 8
	pushq	%r15
	.cfi_adjust_cfa_offset 8
	pushq	%rbp
	.cfi_adjust_cfa_offset 8
	callq	*%rax
	addq	$32, %rsp
	.cfi_adjust_cfa_offset -32
	movq	312(%rsp), %rax
	movq	%rax, 56(%rsp)                  # 8-byte Spill
	movq	296(%rsp), %rbp
	movq	304(%rsp), %rax
	movq	%rax, 48(%rsp)                  # 8-byte Spill
	movq	8(%r12,%r14,8), %rax
	leaq	136(%rsp), %rdi
	movq	24(%rsp), %rsi                  # 8-byte Reload
	callq	*(%rax)
	movslq	160(%rsp), %rbx
	movq	152(%rsp), %r14
	movq	136(%rsp), %r15
	movq	144(%rsp), %r12
	movq	%r15, %rdi
	movq	%r12, %rsi
	movq	%r14, %rdx
	movl	%ebx, %ecx
	movq	%r13, %r8
	callq	*80(%r15,%rbx,8)
	leaq	264(%rsp), %rdi
	movq	%r15, %rsi
	movq	%r12, %rdx
	movq	%r14, %rcx
	movl	%ebx, %r8d
	movq	%r15, %r9
	pushq	%r13
	.cfi_adjust_cfa_offset 8
	pushq	%rbx
	.cfi_adjust_cfa_offset 8
	pushq	%r14
	.cfi_adjust_cfa_offset 8
	pushq	%r12
	.cfi_adjust_cfa_offset 8
	callq	*%rax
	addq	$32, %rsp
	.cfi_adjust_cfa_offset -32
	movq	280(%rsp), %rax
	movq	%rax, 24(%rsp)                  # 8-byte Spill
	movq	264(%rsp), %rbx
	movq	272(%rsp), %rax
	movq	%rax, 16(%rsp)                  # 8-byte Spill
	movq	40(%rbx), %rax
	movabsq	$-933084275656658555, %rcx      # imm = 0xF30D04CB83FB7185
	movq	8(%rbx), %rdx
	imulq	%rcx, %rdx
	movq	%rdx, %rsi
	shrq	$32, %rsi
	xorq	%rdx, %rsi
	andq	16(%rbx), %rsi
	movq	40(%rbp), %rdx
	imulq	8(%rbp), %rcx
	movq	%rcx, %rdi
	shrq	$32, %rdi
	xorq	%rcx, %rdi
	andq	16(%rbp), %rdi
	movl	(%rdx,%rdi,4), %ecx
	movq	%rcx, 40(%rsp)                  # 8-byte Spill
	movl	(%rax,%rsi,4), %eax
	movq	%rax, 32(%rsp)                  # 8-byte Spill
	movq	72(%rsp), %r14
	movq	80(%rsp), %r15
	movq	88(%rsp), %r12
	movslq	96(%rsp), %r13
	movq	_parameterization_IntIterator@GOTPCREL(%rip), %rax
	movq	%rax, 120(%rsp)
	movq	%rax, 128(%rsp)
	movq	24(%r14,%r13,8), %rax
	movq	%rbp, 104(%rsp)
	movq	%rbx, 112(%rsp)
	leaq	104(%rsp), %r8
	movq	%r14, %rdi
	movq	%r15, %rsi
	movq	%r12, %rdx
	movl	%r13d, %ecx
	callq	*%rax
	subq	$8, %rsp
	.cfi_adjust_cfa_offset 8
	leaq	128(%rsp), %r10
	movq	%r14, %rdi
	movq	%r15, %rsi
	movq	%r12, %rdx
	movl	%r13d, %ecx
	movq	%r14, %r8
	movq	%r15, %r9
	pushq	40(%rsp)                        # 8-byte Folded Reload
	.cfi_adjust_cfa_offset 8
	pushq	40(%rsp)                        # 8-byte Folded Reload
	.cfi_adjust_cfa_offset 8
	pushq	40(%rsp)                        # 8-byte Folded Reload
	.cfi_adjust_cfa_offset 8
	pushq	%rbx
	.cfi_adjust_cfa_offset 8
	pushq	80(%rsp)                        # 8-byte Folded Reload
	.cfi_adjust_cfa_offset 8
	pushq	104(%rsp)                       # 8-byte Folded Reload
	.cfi_adjust_cfa_offset 8
	pushq	104(%rsp)                       # 8-byte Folded Reload
	.cfi_adjust_cfa_offset 8
	pushq	%rbp
	.cfi_adjust_cfa_offset 8
	pushq	%r10
	.cfi_adjust_cfa_offset 8
	pushq	%r13
	.cfi_adjust_cfa_offset 8
	pushq	%r12
	.cfi_adjust_cfa_offset 8
	callq	*%rax
	addq	$96, %rsp
	.cfi_adjust_cfa_offset -96
	movq	40(%r14), %rax
	movabsq	$8673632051301757104, %rcx      # imm = 0x785EEE655248B0B0
	imulq	8(%r14), %rcx
	movq	%rcx, %rdx
	shrq	$32, %rdx
	xorq	%rcx, %rdx
	andq	16(%r14), %rdx
	movl	(%rax,%rdx,4), %ecx
	movq	64(%rsp), %rax                  # 8-byte Reload
	movq	%r12, 16(%rax)
	movq	%r15, 8(%rax)
	movq	%r14, (%rax)
	movl	%ecx, 24(%rax)
	addq	$392, %rsp                      # imm = 0x188
	.cfi_def_cfa_offset 56
	popq	%rbx
	.cfi_def_cfa_offset 48
	popq	%r12
	.cfi_def_cfa_offset 40
	popq	%r13
	.cfi_def_cfa_offset 32
	popq	%r14
	.cfi_def_cfa_offset 24
	popq	%r15
	.cfi_def_cfa_offset 16
	popq	%rbp
	.cfi_def_cfa_offset 8
	retq
